(lp1
(idata.doctor
Doctor
p2
(dp3
S'surname'
p4
S'\xc4\x8cepar'
p5
sS'name'
p6
S'Matja\xc5\xbe'
p7
sS'title'
p8
S'Zdravnik'
p9
sS'employment_type'
p10
(idata.employment_type
EmploymentType
p11
(dp12
S'allowed_turnuses'
p13
c__builtin__
set
p14
((lp15
(idata.turnus
Turnus
p16
(dp17
S'start'
p18
cdatetime
time
p19
(S'\x07\x00\x00\x00\x00\x00'
tRp20
sS'code'
p21
S'C'
sS'end'
p22
g19
(S'\x13\x00\x00\x00\x00\x00'
tRp23
sS'label'
p24
S'celodnevno'
p25
sba(idata.turnus
Turnus
p26
(dp27
g18
g19
(S'\x07\x00\x00\x00\x00\x00'
tRp28
sg21
S'D'
sg22
g19
(S'\x0e\x00\x00\x00\x00\x00'
tRp29
sg24
S've\xc4\x8d izmensko'
p30
sba(idata.turnus
Turnus
p31
(dp32
g18
g19
(S'\x07\x00\x00\x00\x00\x00'
tRp33
sg21
S'D'
sg22
g19
(S'\x0f\x00\x00\x00\x00\x00'
tRp34
sg24
S'eno izmensko'
p35
sba(idata.turnus
Turnus
p36
(dp37
g18
g19
(S'\x15\x00\x00\x00\x00\x00'
tRp38
sg21
S'N'
sg22
g19
(S'\x07\x00\x00\x00\x00\x00'
tRp39
sg24
g30
sba(idata.turnus
Turnus
p40
(dp41
g18
g19
(S'\x0e\x00\x00\x00\x00\x00'
tRp42
sg21
S'P'
sg22
g19
(S'\x15\x00\x00\x00\x00\x00'
tRp43
sg24
g30
sbatRp44
sS'monthly_hours'
p45
I200
sS'weekly_hours'
p46
I40
sS'has_overtime'
p47
I01
sg24
S'Normalna zaposlitev'
p48
sbsS'workplaces'
p49
g14
((lp50
(idata.workplace
Workplace
p51
(dp52
S'allowed_turnuses'
p53
g14
((ltRp54
sS'label'
p55
S'Intenzivna nega'
p56
sba(idata.workplace
Workplace
p57
(dp58
S'allowed_turnuses'
p59
g14
((lp60
(idata.turnus
Turnus
p61
(dp62
S'start'
p63
g19
(S'\x0f\x00\x00\x00\x00\x00'
tRp64
sS'code'
p65
S'I-TX'
p66
sS'end'
p67
g19
(S'\x07\x00\x00\x00\x00\x00'
tRp68
sS'label'
p69
S'pripravljenost za transplantacijo'
p70
sba(idata.turnus
Turnus
p71
(dp72
S'start'
p73
g19
(S'\x07\x00\x00\x00\x00\x00'
tRp74
sS'code'
p75
S'D'
sS'end'
p76
g19
(S'\x0f\x00\x00\x00\x00\x00'
tRp77
sS'label'
p78
S'eno izmensko'
p79
sba(idata.turnus
Turnus
p80
(dp81
g63
g19
(S'\x0f\x00\x00\x00\x00\x00'
tRp82
sg65
S'I'
sg67
g19
(S'\x07\x00\x00\x00\x00\x00'
tRp83
sg69
S'pripravljenost'
p84
sba(idata.turnus
Turnus
p85
(dp86
g63
g19
(S'\x07\x00\x00\x00\x00\x00'
tRp87
sg65
S'E'
sg67
g19
(S'\x07\x00\x00\x00\x00\x00'
tRp88
sg69
S'de\xc5\xbeurna'
p89
sba(idata.turnus
Turnus
p90
(dp91
g63
g19
(S'\x07\x00\x00\x00\x00\x00'
tRp92
sg65
S'D-'
p93
sg67
g19
(S'\x0b\x00\x00\x00\x00\x00'
tRp94
sg69
S'dopoldanska po de\xc5\xbeurni'
p95
sbatRp96
sS'label'
p97
S'Navadna nega (odd)'
p98
sba(idata.workplace
Workplace
p99
(dp100
S'allowed_turnuses'
p101
g14
((lp102
(idata.turnus
Turnus
p103
(dp104
S'start'
p105
g19
(S'\x07\x00\x00\x00\x00\x00'
tRp106
sS'code'
p107
S'D'
sS'end'
p108
g19
(S'\x0e\x00\x00\x00\x00\x00'
tRp109
sS'label'
p110
S've\xc4\x8d izmensko'
p111
sba(idata.turnus
Turnus
p112
(dp113
g105
g19
(S'\x07\x00\x00\x00\x00\x00'
tRp114
sg107
S'D'
sg108
g19
(S'\x0f\x00\x00\x00\x00\x00'
tRp115
sg110
S'eno izmensko'
p116
sba(idata.turnus
Turnus
p117
(dp118
g105
g19
(S'\x15\x00\x00\x00\x00\x00'
tRp119
sg107
S'N'
sg108
g19
(S'\x07\x00\x00\x00\x00\x00'
tRp120
sg110
g111
sba(idata.turnus
Turnus
p121
(dp122
g105
g19
(S'\x0e\x00\x00\x00\x00\x00'
tRp123
sg107
S'P'
sg108
g19
(S'\x15\x00\x00\x00\x00\x00'
tRp124
sg110
g111
sbatRp125
sS'label'
p126
S'Ambulanta'
p127
sba(idata.workplace
Workplace
p128
(dp129
g53
g14
((ltRp130
sg55
S'Perfuzija'
p131
sba(idata.workplace
Workplace
p132
(dp133
g53
g14
((ltRp134
sg55
S'Intenzivna terapija B'
p135
sba(idata.workplace
Workplace
p136
(dp137
g53
g14
((ltRp138
sg55
S'Intenzivna terapija A'
p139
sba(idata.workplace
Workplace
p140
(dp141
g53
g14
((ltRp142
sg55
S'Administracija'
p143
sbatRp144
sS'birthday'
p145
S'1'
sS'vacations'
p146
(dp147
sS'forbidden_turnuses'
p148
(dp149
sba(idata.doctor
Doctor
p150
(dp151
g4
S'Rav\xc5\xa1elj'
p152
sg6
S'Matej'
p153
sg8
g9
sg10
(idata.employment_type
EmploymentType
p154
(dp155
S'allowed_turnuses'
p156
g14
((lp157
(idata.turnus
Turnus
p158
(dp159
S'start'
p160
g19
(S'\x07\x00\x00\x00\x00\x00'
tRp161
sS'code'
p162
S'C'
sS'end'
p163
g19
(S'\x13\x00\x00\x00\x00\x00'
tRp164
sS'label'
p165
S'celodnevno'
p166
sba(idata.turnus
Turnus
p167
(dp168
g160
g19
(S'\x07\x00\x00\x00\x00\x00'
tRp169
sg162
S'D'
sg163
g19
(S'\x0e\x00\x00\x00\x00\x00'
tRp170
sg165
S've\xc4\x8d izmensko'
p171
sba(idata.turnus
Turnus
p172
(dp173
g160
g19
(S'\x07\x00\x00\x00\x00\x00'
tRp174
sg162
S'D'
sg163
g19
(S'\x0f\x00\x00\x00\x00\x00'
tRp175
sg165
S'eno izmensko'
p176
sba(idata.turnus
Turnus
p177
(dp178
g160
g19
(S'\x15\x00\x00\x00\x00\x00'
tRp179
sg162
S'N'
sg163
g19
(S'\x07\x00\x00\x00\x00\x00'
tRp180
sg165
g171
sba(idata.turnus
Turnus
p181
(dp182
g160
g19
(S'\x0e\x00\x00\x00\x00\x00'
tRp183
sg162
S'P'
sg163
g19
(S'\x15\x00\x00\x00\x00\x00'
tRp184
sg165
g171
sbatRp185
sS'monthly_hours'
p186
I200
sS'weekly_hours'
p187
I40
sS'has_overtime'
p188
I01
sg165
S'Normalna zaposlitev'
p189
sbsg49
g14
((lp190
g51
ag57
ag99
ag128
ag132
ag136
ag140
atRp191
sg145
S'1'
sg146
(dp192
sg148
(dp193
sba(idata.doctor
Doctor
p194
(dp195
g4
S'\xc4\x8cotar'
p196
sg6
S'Milo\xc5\xa1'
p197
sg8
g9
sg10
(idata.employment_type
EmploymentType
p198
(dp199
S'allowed_turnuses'
p200
g14
((lp201
(idata.turnus
Turnus
p202
(dp203
S'start'
p204
g19
(S'\x07\x00\x00\x00\x00\x00'
tRp205
sS'code'
p206
S'C'
sS'end'
p207
g19
(S'\x13\x00\x00\x00\x00\x00'
tRp208
sS'label'
p209
S'celodnevno'
p210
sba(idata.turnus
Turnus
p211
(dp212
g204
g19
(S'\x07\x00\x00\x00\x00\x00'
tRp213
sg206
S'D'
sg207
g19
(S'\x0e\x00\x00\x00\x00\x00'
tRp214
sg209
S've\xc4\x8d izmensko'
p215
sba(idata.turnus
Turnus
p216
(dp217
g204
g19
(S'\x07\x00\x00\x00\x00\x00'
tRp218
sg206
S'D'
sg207
g19
(S'\x0f\x00\x00\x00\x00\x00'
tRp219
sg209
S'eno izmensko'
p220
sba(idata.turnus
Turnus
p221
(dp222
g204
g19
(S'\x15\x00\x00\x00\x00\x00'
tRp223
sg206
S'N'
sg207
g19
(S'\x07\x00\x00\x00\x00\x00'
tRp224
sg209
g215
sba(idata.turnus
Turnus
p225
(dp226
g204
g19
(S'\x0e\x00\x00\x00\x00\x00'
tRp227
sg206
S'P'
sg207
g19
(S'\x15\x00\x00\x00\x00\x00'
tRp228
sg209
g215
sbatRp229
sS'monthly_hours'
p230
I200
sS'weekly_hours'
p231
I40
sS'has_overtime'
p232
I01
sg209
S'Normalna zaposlitev'
p233
sbsg49
g14
((lp234
g51
ag57
ag99
ag128
ag132
ag136
ag140
atRp235
sg145
S'1'
sg146
(dp236
sg148
(dp237
sba(idata.doctor
Doctor
p238
(dp239
g4
S'Kri\xc5\xbeman'
p240
sg6
S'Simon'
p241
sg8
g9
sg10
(idata.employment_type
EmploymentType
p242
(dp243
S'allowed_turnuses'
p244
g14
((lp245
(idata.turnus
Turnus
p246
(dp247
S'start'
p248
g19
(S'\x07\x00\x00\x00\x00\x00'
tRp249
sS'code'
p250
S'C'
sS'end'
p251
g19
(S'\x13\x00\x00\x00\x00\x00'
tRp252
sS'label'
p253
S'celodnevno'
p254
sba(idata.turnus
Turnus
p255
(dp256
g248
g19
(S'\x07\x00\x00\x00\x00\x00'
tRp257
sg250
S'D'
sg251
g19
(S'\x0e\x00\x00\x00\x00\x00'
tRp258
sg253
S've\xc4\x8d izmensko'
p259
sba(idata.turnus
Turnus
p260
(dp261
g248
g19
(S'\x07\x00\x00\x00\x00\x00'
tRp262
sg250
S'D'
sg251
g19
(S'\x0f\x00\x00\x00\x00\x00'
tRp263
sg253
S'eno izmensko'
p264
sba(idata.turnus
Turnus
p265
(dp266
g248
g19
(S'\x15\x00\x00\x00\x00\x00'
tRp267
sg250
S'N'
sg251
g19
(S'\x07\x00\x00\x00\x00\x00'
tRp268
sg253
g259
sba(idata.turnus
Turnus
p269
(dp270
g248
g19
(S'\x0e\x00\x00\x00\x00\x00'
tRp271
sg250
S'P'
sg251
g19
(S'\x15\x00\x00\x00\x00\x00'
tRp272
sg253
g259
sbatRp273
sS'monthly_hours'
p274
I200
sS'weekly_hours'
p275
I40
sS'has_overtime'
p276
I01
sg253
S'Normalna zaposlitev'
p277
sbsg49
g14
((lp278
g51
ag57
ag99
ag128
ag132
ag136
ag140
atRp279
sg145
S'1'
sg146
(dp280
sg148
(dp281
sba(idata.doctor
Doctor
p282
(dp283
g4
S'Petrinja'
p284
sg6
S'Davor'
p285
sg8
g9
sg10
(idata.employment_type
EmploymentType
p286
(dp287
S'allowed_turnuses'
p288
g14
((lp289
(idata.turnus
Turnus
p290
(dp291
S'start'
p292
g19
(S'\x07\x00\x00\x00\x00\x00'
tRp293
sS'code'
p294
S'C'
sS'end'
p295
g19
(S'\x13\x00\x00\x00\x00\x00'
tRp296
sS'label'
p297
S'celodnevno'
p298
sba(idata.turnus
Turnus
p299
(dp300
g292
g19
(S'\x07\x00\x00\x00\x00\x00'
tRp301
sg294
S'D'
sg295
g19
(S'\x0e\x00\x00\x00\x00\x00'
tRp302
sg297
S've\xc4\x8d izmensko'
p303
sba(idata.turnus
Turnus
p304
(dp305
g292
g19
(S'\x07\x00\x00\x00\x00\x00'
tRp306
sg294
S'D'
sg295
g19
(S'\x0f\x00\x00\x00\x00\x00'
tRp307
sg297
S'eno izmensko'
p308
sba(idata.turnus
Turnus
p309
(dp310
g292
g19
(S'\x15\x00\x00\x00\x00\x00'
tRp311
sg294
S'N'
sg295
g19
(S'\x07\x00\x00\x00\x00\x00'
tRp312
sg297
g303
sba(idata.turnus
Turnus
p313
(dp314
g292
g19
(S'\x0e\x00\x00\x00\x00\x00'
tRp315
sg294
S'P'
sg295
g19
(S'\x15\x00\x00\x00\x00\x00'
tRp316
sg297
g303
sbatRp317
sS'monthly_hours'
p318
I200
sS'weekly_hours'
p319
I40
sS'has_overtime'
p320
I01
sg297
S'Normalna zaposlitev'
p321
sbsg49
g14
((lp322
g51
ag57
ag99
ag128
ag132
ag136
ag140
atRp323
sg145
S'1'
sg146
(dp324
sg148
(dp325
sba(idata.doctor
Doctor
p326
(dp327
g4
S'Jernej\xc4\x8di\xc4\x8d'
p328
sg6
S'Urban'
p329
sg8
g9
sg10
(idata.employment_type
EmploymentType
p330
(dp331
S'allowed_turnuses'
p332
g14
((lp333
(idata.turnus
Turnus
p334
(dp335
S'start'
p336
g19
(S'\x07\x00\x00\x00\x00\x00'
tRp337
sS'code'
p338
S'C'
sS'end'
p339
g19
(S'\x13\x00\x00\x00\x00\x00'
tRp340
sS'label'
p341
S'celodnevno'
p342
sba(idata.turnus
Turnus
p343
(dp344
g336
g19
(S'\x07\x00\x00\x00\x00\x00'
tRp345
sg338
S'D'
sg339
g19
(S'\x0e\x00\x00\x00\x00\x00'
tRp346
sg341
S've\xc4\x8d izmensko'
p347
sba(idata.turnus
Turnus
p348
(dp349
g336
g19
(S'\x07\x00\x00\x00\x00\x00'
tRp350
sg338
S'D'
sg339
g19
(S'\x0f\x00\x00\x00\x00\x00'
tRp351
sg341
S'eno izmensko'
p352
sba(idata.turnus
Turnus
p353
(dp354
g336
g19
(S'\x15\x00\x00\x00\x00\x00'
tRp355
sg338
S'N'
sg339
g19
(S'\x07\x00\x00\x00\x00\x00'
tRp356
sg341
g347
sba(idata.turnus
Turnus
p357
(dp358
g336
g19
(S'\x0e\x00\x00\x00\x00\x00'
tRp359
sg338
S'P'
sg339
g19
(S'\x15\x00\x00\x00\x00\x00'
tRp360
sg341
g347
sbatRp361
sS'monthly_hours'
p362
I200
sS'weekly_hours'
p363
I40
sS'has_overtime'
p364
I01
sg341
S'Normalna zaposlitev'
p365
sbsg49
g14
((lp366
g51
ag57
ag99
ag128
ag132
ag136
ag140
atRp367
sg145
S'1'
sg146
(dp368
sg148
(dp369
sba.