(lp1
(idata.doctor
Doctor
p2
(dp3
S'surname'
p4
S'\xc4\x8cepar'
p5
sS'name'
p6
S'Matja\xc5\xbe'
p7
sS'employment_type'
p8
(idata.employment_type
EmploymentType
p9
(dp10
S'allowed_turnuses'
p11
c__builtin__
set
p12
((lp13
(idata.turnus
Turnus
p14
(dp15
S'start'
p16
cdatetime
time
p17
(S'\x07\x00\x00\x00\x00\x00'
tRp18
sS'code'
p19
S'C'
sS'end'
p20
g17
(S'\x13\x00\x00\x00\x00\x00'
tRp21
sS'label'
p22
S'celodnevno'
p23
sba(idata.turnus
Turnus
p24
(dp25
g16
g17
(S'\x07\x00\x00\x00\x00\x00'
tRp26
sg19
S'D'
sg20
g17
(S'\x0e\x00\x00\x00\x00\x00'
tRp27
sg22
S've\xc4\x8d izmensko'
p28
sba(idata.turnus
Turnus
p29
(dp30
g16
g17
(S'\x07\x00\x00\x00\x00\x00'
tRp31
sg19
S'D'
sg20
g17
(S'\x0f\x00\x00\x00\x00\x00'
tRp32
sg22
S'eno izmensko'
p33
sba(idata.turnus
Turnus
p34
(dp35
g16
g17
(S'\x15\x00\x00\x00\x00\x00'
tRp36
sg19
S'N'
sg20
g17
(S'\x07\x00\x00\x00\x00\x00'
tRp37
sg22
g28
sba(idata.turnus
Turnus
p38
(dp39
g16
g17
(S'\x0e\x00\x00\x00\x00\x00'
tRp40
sg19
S'P'
sg20
g17
(S'\x15\x00\x00\x00\x00\x00'
tRp41
sg22
g28
sbatRp42
sS'monthly_hours'
p43
I200
sS'weekly_hours'
p44
I40
sS'has_overtime'
p45
I01
sg22
S'Normalna zaposlitev'
p46
sbsS'workplaces'
p47
g12
((lp48
(idata.workplace
Workplace
p49
(dp50
S'allowed_turnuses'
p51
g12
((ltRp52
sS'label'
p53
S'Intenzivna nega'
p54
sba(idata.workplace
Workplace
p55
(dp56
g51
g12
((ltRp57
sg53
S'Navadna nega (odd)'
p58
sba(idata.workplace
Workplace
p59
(dp60
g51
g12
((ltRp61
sg53
S'Ambulanta'
p62
sba(idata.workplace
Workplace
p63
(dp64
g51
g12
((ltRp65
sg53
S'Perfuzija'
p66
sba(idata.workplace
Workplace
p67
(dp68
g51
g12
((ltRp69
sg53
S'Intenzivna terapija B'
p70
sba(idata.workplace
Workplace
p71
(dp72
g51
g12
((ltRp73
sg53
S'Intenzivna terapija A'
p74
sbatRp75
sS'vacations'
p76
(dp77
sS'forbidden_turnuses'
p78
(dp79
sba(idata.doctor
Doctor
p80
(dp81
g4
S'Rav\xc5\xa1elj'
p82
sg6
S'Matej'
p83
sg8
(idata.employment_type
EmploymentType
p84
(dp85
S'allowed_turnuses'
p86
g12
((lp87
(idata.turnus
Turnus
p88
(dp89
S'start'
p90
g17
(S'\x07\x00\x00\x00\x00\x00'
tRp91
sS'code'
p92
S'C'
sS'end'
p93
g17
(S'\x13\x00\x00\x00\x00\x00'
tRp94
sS'label'
p95
S'celodnevno'
p96
sba(idata.turnus
Turnus
p97
(dp98
g90
g17
(S'\x07\x00\x00\x00\x00\x00'
tRp99
sg92
S'D'
sg93
g17
(S'\x0e\x00\x00\x00\x00\x00'
tRp100
sg95
S've\xc4\x8d izmensko'
p101
sba(idata.turnus
Turnus
p102
(dp103
g90
g17
(S'\x07\x00\x00\x00\x00\x00'
tRp104
sg92
S'D'
sg93
g17
(S'\x0f\x00\x00\x00\x00\x00'
tRp105
sg95
S'eno izmensko'
p106
sba(idata.turnus
Turnus
p107
(dp108
g90
g17
(S'\x15\x00\x00\x00\x00\x00'
tRp109
sg92
S'N'
sg93
g17
(S'\x07\x00\x00\x00\x00\x00'
tRp110
sg95
g101
sba(idata.turnus
Turnus
p111
(dp112
g90
g17
(S'\x0e\x00\x00\x00\x00\x00'
tRp113
sg92
S'P'
sg93
g17
(S'\x15\x00\x00\x00\x00\x00'
tRp114
sg95
g101
sbatRp115
sS'monthly_hours'
p116
I200
sS'weekly_hours'
p117
I40
sS'has_overtime'
p118
I01
sg95
S'Normalna zaposlitev'
p119
sbsg47
g12
((lp120
g49
ag55
ag59
ag63
ag67
ag71
atRp121
sg76
(dp122
sg78
(dp123
sba(idata.doctor
Doctor
p124
(dp125
g4
S'\xc4\x8cotar'
p126
sg6
S'Milo\xc5\xa1'
p127
sg8
(idata.employment_type
EmploymentType
p128
(dp129
S'allowed_turnuses'
p130
g12
((lp131
(idata.turnus
Turnus
p132
(dp133
S'start'
p134
g17
(S'\x07\x00\x00\x00\x00\x00'
tRp135
sS'code'
p136
S'C'
sS'end'
p137
g17
(S'\x13\x00\x00\x00\x00\x00'
tRp138
sS'label'
p139
S'celodnevno'
p140
sba(idata.turnus
Turnus
p141
(dp142
g134
g17
(S'\x07\x00\x00\x00\x00\x00'
tRp143
sg136
S'D'
sg137
g17
(S'\x0e\x00\x00\x00\x00\x00'
tRp144
sg139
S've\xc4\x8d izmensko'
p145
sba(idata.turnus
Turnus
p146
(dp147
g134
g17
(S'\x07\x00\x00\x00\x00\x00'
tRp148
sg136
S'D'
sg137
g17
(S'\x0f\x00\x00\x00\x00\x00'
tRp149
sg139
S'eno izmensko'
p150
sba(idata.turnus
Turnus
p151
(dp152
g134
g17
(S'\x15\x00\x00\x00\x00\x00'
tRp153
sg136
S'N'
sg137
g17
(S'\x07\x00\x00\x00\x00\x00'
tRp154
sg139
g145
sba(idata.turnus
Turnus
p155
(dp156
g134
g17
(S'\x0e\x00\x00\x00\x00\x00'
tRp157
sg136
S'P'
sg137
g17
(S'\x15\x00\x00\x00\x00\x00'
tRp158
sg139
g145
sbatRp159
sS'monthly_hours'
p160
I200
sS'weekly_hours'
p161
I40
sS'has_overtime'
p162
I01
sg139
S'Normalna zaposlitev'
p163
sbsg47
g12
((lp164
g49
ag55
ag59
ag63
ag67
ag71
atRp165
sg76
(dp166
sg78
(dp167
sba(idata.doctor
Doctor
p168
(dp169
g4
S'Kri\xc5\xbeman'
p170
sg6
S'Simon'
p171
sg8
(idata.employment_type
EmploymentType
p172
(dp173
S'allowed_turnuses'
p174
g12
((lp175
(idata.turnus
Turnus
p176
(dp177
S'start'
p178
g17
(S'\x07\x00\x00\x00\x00\x00'
tRp179
sS'code'
p180
S'C'
sS'end'
p181
g17
(S'\x13\x00\x00\x00\x00\x00'
tRp182
sS'label'
p183
S'celodnevno'
p184
sba(idata.turnus
Turnus
p185
(dp186
g178
g17
(S'\x07\x00\x00\x00\x00\x00'
tRp187
sg180
S'D'
sg181
g17
(S'\x0e\x00\x00\x00\x00\x00'
tRp188
sg183
S've\xc4\x8d izmensko'
p189
sba(idata.turnus
Turnus
p190
(dp191
g178
g17
(S'\x07\x00\x00\x00\x00\x00'
tRp192
sg180
S'D'
sg181
g17
(S'\x0f\x00\x00\x00\x00\x00'
tRp193
sg183
S'eno izmensko'
p194
sba(idata.turnus
Turnus
p195
(dp196
g178
g17
(S'\x15\x00\x00\x00\x00\x00'
tRp197
sg180
S'N'
sg181
g17
(S'\x07\x00\x00\x00\x00\x00'
tRp198
sg183
g189
sba(idata.turnus
Turnus
p199
(dp200
g178
g17
(S'\x0e\x00\x00\x00\x00\x00'
tRp201
sg180
S'P'
sg181
g17
(S'\x15\x00\x00\x00\x00\x00'
tRp202
sg183
g189
sbatRp203
sS'monthly_hours'
p204
I200
sS'weekly_hours'
p205
I40
sS'has_overtime'
p206
I01
sg183
S'Normalna zaposlitev'
p207
sbsg47
g12
((lp208
g49
ag55
ag59
ag63
ag67
ag71
atRp209
sg76
(dp210
sg78
(dp211
sba(idata.doctor
Doctor
p212
(dp213
g4
S'Petrinja'
p214
sg6
S'Davor'
p215
sg8
(idata.employment_type
EmploymentType
p216
(dp217
S'allowed_turnuses'
p218
g12
((lp219
(idata.turnus
Turnus
p220
(dp221
S'start'
p222
g17
(S'\x07\x00\x00\x00\x00\x00'
tRp223
sS'code'
p224
S'C'
sS'end'
p225
g17
(S'\x13\x00\x00\x00\x00\x00'
tRp226
sS'label'
p227
S'celodnevno'
p228
sba(idata.turnus
Turnus
p229
(dp230
g222
g17
(S'\x07\x00\x00\x00\x00\x00'
tRp231
sg224
S'D'
sg225
g17
(S'\x0e\x00\x00\x00\x00\x00'
tRp232
sg227
S've\xc4\x8d izmensko'
p233
sba(idata.turnus
Turnus
p234
(dp235
g222
g17
(S'\x07\x00\x00\x00\x00\x00'
tRp236
sg224
S'D'
sg225
g17
(S'\x0f\x00\x00\x00\x00\x00'
tRp237
sg227
S'eno izmensko'
p238
sba(idata.turnus
Turnus
p239
(dp240
g222
g17
(S'\x15\x00\x00\x00\x00\x00'
tRp241
sg224
S'N'
sg225
g17
(S'\x07\x00\x00\x00\x00\x00'
tRp242
sg227
g233
sba(idata.turnus
Turnus
p243
(dp244
g222
g17
(S'\x0e\x00\x00\x00\x00\x00'
tRp245
sg224
S'P'
sg225
g17
(S'\x15\x00\x00\x00\x00\x00'
tRp246
sg227
g233
sbatRp247
sS'monthly_hours'
p248
I200
sS'weekly_hours'
p249
I40
sS'has_overtime'
p250
I01
sg227
S'Normalna zaposlitev'
p251
sbsg47
g12
((lp252
g49
ag55
ag59
ag63
ag67
ag71
atRp253
sg76
(dp254
sg78
(dp255
sba(idata.doctor
Doctor
p256
(dp257
g4
S'Jernej\xc4\x8di\xc4\x8d'
p258
sg6
S'Urban'
p259
sg8
(idata.employment_type
EmploymentType
p260
(dp261
S'allowed_turnuses'
p262
g12
((lp263
(idata.turnus
Turnus
p264
(dp265
S'start'
p266
g17
(S'\x07\x00\x00\x00\x00\x00'
tRp267
sS'code'
p268
S'C'
sS'end'
p269
g17
(S'\x13\x00\x00\x00\x00\x00'
tRp270
sS'label'
p271
S'celodnevno'
p272
sba(idata.turnus
Turnus
p273
(dp274
g266
g17
(S'\x07\x00\x00\x00\x00\x00'
tRp275
sg268
S'D'
sg269
g17
(S'\x0e\x00\x00\x00\x00\x00'
tRp276
sg271
S've\xc4\x8d izmensko'
p277
sba(idata.turnus
Turnus
p278
(dp279
g266
g17
(S'\x07\x00\x00\x00\x00\x00'
tRp280
sg268
S'D'
sg269
g17
(S'\x0f\x00\x00\x00\x00\x00'
tRp281
sg271
S'eno izmensko'
p282
sba(idata.turnus
Turnus
p283
(dp284
g266
g17
(S'\x15\x00\x00\x00\x00\x00'
tRp285
sg268
S'N'
sg269
g17
(S'\x07\x00\x00\x00\x00\x00'
tRp286
sg271
g277
sba(idata.turnus
Turnus
p287
(dp288
g266
g17
(S'\x0e\x00\x00\x00\x00\x00'
tRp289
sg268
S'P'
sg269
g17
(S'\x15\x00\x00\x00\x00\x00'
tRp290
sg271
g277
sbatRp291
sS'monthly_hours'
p292
I200
sS'weekly_hours'
p293
I40
sS'has_overtime'
p294
I01
sg271
S'Normalna zaposlitev'
p295
sbsg47
g12
((lp296
g49
ag55
ag59
ag63
ag67
ag71
atRp297
sg76
(dp298
sg78
(dp299
sba.