(lp1
(idata.doctor
Doctor
p2
(dp3
S'forbidden_turnuses'
p4
(dp5
sS'employment_type'
p6
(idata.employment_type
EmploymentType
p7
(dp8
S'allowed_turnuses'
p9
(lp10
(idata.turnus
Turnus
p11
(dp12
S'start'
p13
cdatetime
time
p14
(S'\x08\x00\x00\x00\x00\x00'
tRp15
sS'code'
p16
S'D'
sS'end'
p17
g14
(S'\x10\x00\x00\x00\x00\x00'
tRp18
sS'label'
p19
S'eno izmensko'
p20
sba(idata.turnus
Turnus
p21
(dp22
g13
g14
(S'\x07\x00\x00\x00\x00\x00'
tRp23
sg16
S'D'
sg17
g14
(S'\x0e\x00\x00\x00\x00\x00'
tRp24
sg19
S've\xc4\x8d izmensko'
p25
sba(idata.turnus
Turnus
p26
(dp27
g13
g14
(S'\x0e\x00\x00\x00\x00\x00'
tRp28
sg16
S'P'
sg17
g14
(S'\x13\x00\x00\x00\x00\x00'
tRp29
sg19
g25
sba(idata.turnus
Turnus
p30
(dp31
g13
g14
(S'\x13\x00\x00\x00\x00\x00'
tRp32
sg16
S'N'
sg17
g14
(S'\x07\x00\x00\x00\x00\x00'
tRp33
sg19
g25
sba(idata.turnus
Turnus
p34
(dp35
g13
g14
(S'\x07\x00\x00\x00\x00\x00'
tRp36
sg16
S'C'
sg17
g14
(S'\x13\x00\x00\x00\x00\x00'
tRp37
sg19
S'celodnevno'
p38
sbasS'monthly_hours'
p39
I200
sS'weekly_hours'
p40
I40
sS'has_overtime'
p41
I01
sg19
S'Normalna zaposlitev'
p42
sbsS'surname'
p43
S'\xc4\x8cepar'
p44
sS'name'
p45
S'Matja\xc5\xbe'
p46
sS'vacations'
p47
(dp48
sba(idata.doctor
Doctor
p49
(dp50
g4
(dp51
sg6
(idata.employment_type
EmploymentType
p52
(dp53
S'allowed_turnuses'
p54
(lp55
(idata.turnus
Turnus
p56
(dp57
S'start'
p58
g14
(S'\x08\x00\x00\x00\x00\x00'
tRp59
sS'code'
p60
S'D'
sS'end'
p61
g14
(S'\x10\x00\x00\x00\x00\x00'
tRp62
sS'label'
p63
S'eno izmensko'
p64
sba(idata.turnus
Turnus
p65
(dp66
g58
g14
(S'\x07\x00\x00\x00\x00\x00'
tRp67
sg60
S'D'
sg61
g14
(S'\x0e\x00\x00\x00\x00\x00'
tRp68
sg63
S've\xc4\x8d izmensko'
p69
sba(idata.turnus
Turnus
p70
(dp71
g58
g14
(S'\x0e\x00\x00\x00\x00\x00'
tRp72
sg60
S'P'
sg61
g14
(S'\x13\x00\x00\x00\x00\x00'
tRp73
sg63
g69
sba(idata.turnus
Turnus
p74
(dp75
g58
g14
(S'\x13\x00\x00\x00\x00\x00'
tRp76
sg60
S'N'
sg61
g14
(S'\x07\x00\x00\x00\x00\x00'
tRp77
sg63
g69
sba(idata.turnus
Turnus
p78
(dp79
g58
g14
(S'\x07\x00\x00\x00\x00\x00'
tRp80
sg60
S'C'
sg61
g14
(S'\x13\x00\x00\x00\x00\x00'
tRp81
sg63
S'celodnevno'
p82
sbasS'monthly_hours'
p83
I200
sS'weekly_hours'
p84
I40
sS'has_overtime'
p85
I01
sg63
S'Normalna zaposlitev'
p86
sbsg43
S'Rav\xc5\xa1elj'
p87
sg45
S'Matej'
p88
sg47
(dp89
sba(idata.doctor
Doctor
p90
(dp91
g4
(dp92
sg6
(idata.employment_type
EmploymentType
p93
(dp94
S'allowed_turnuses'
p95
(lp96
(idata.turnus
Turnus
p97
(dp98
S'start'
p99
g14
(S'\x08\x00\x00\x00\x00\x00'
tRp100
sS'code'
p101
S'D'
sS'end'
p102
g14
(S'\x10\x00\x00\x00\x00\x00'
tRp103
sS'label'
p104
S'eno izmensko'
p105
sba(idata.turnus
Turnus
p106
(dp107
g99
g14
(S'\x07\x00\x00\x00\x00\x00'
tRp108
sg101
S'D'
sg102
g14
(S'\x0e\x00\x00\x00\x00\x00'
tRp109
sg104
S've\xc4\x8d izmensko'
p110
sba(idata.turnus
Turnus
p111
(dp112
g99
g14
(S'\x0e\x00\x00\x00\x00\x00'
tRp113
sg101
S'P'
sg102
g14
(S'\x13\x00\x00\x00\x00\x00'
tRp114
sg104
g110
sba(idata.turnus
Turnus
p115
(dp116
g99
g14
(S'\x13\x00\x00\x00\x00\x00'
tRp117
sg101
S'N'
sg102
g14
(S'\x07\x00\x00\x00\x00\x00'
tRp118
sg104
g110
sba(idata.turnus
Turnus
p119
(dp120
g99
g14
(S'\x07\x00\x00\x00\x00\x00'
tRp121
sg101
S'C'
sg102
g14
(S'\x13\x00\x00\x00\x00\x00'
tRp122
sg104
S'celodnevno'
p123
sbasS'monthly_hours'
p124
I200
sS'weekly_hours'
p125
I40
sS'has_overtime'
p126
I01
sg104
S'Normalna zaposlitev'
p127
sbsg43
S'\xc4\x8cotar'
p128
sg45
S'Milo\xc5\xa1'
p129
sg47
(dp130
sba(idata.doctor
Doctor
p131
(dp132
g4
(dp133
sg6
(idata.employment_type
EmploymentType
p134
(dp135
S'allowed_turnuses'
p136
(lp137
(idata.turnus
Turnus
p138
(dp139
S'start'
p140
g14
(S'\x08\x00\x00\x00\x00\x00'
tRp141
sS'code'
p142
S'D'
sS'end'
p143
g14
(S'\x10\x00\x00\x00\x00\x00'
tRp144
sS'label'
p145
S'eno izmensko'
p146
sba(idata.turnus
Turnus
p147
(dp148
g140
g14
(S'\x07\x00\x00\x00\x00\x00'
tRp149
sg142
S'D'
sg143
g14
(S'\x0e\x00\x00\x00\x00\x00'
tRp150
sg145
S've\xc4\x8d izmensko'
p151
sba(idata.turnus
Turnus
p152
(dp153
g140
g14
(S'\x0e\x00\x00\x00\x00\x00'
tRp154
sg142
S'P'
sg143
g14
(S'\x13\x00\x00\x00\x00\x00'
tRp155
sg145
g151
sba(idata.turnus
Turnus
p156
(dp157
g140
g14
(S'\x13\x00\x00\x00\x00\x00'
tRp158
sg142
S'N'
sg143
g14
(S'\x07\x00\x00\x00\x00\x00'
tRp159
sg145
g151
sba(idata.turnus
Turnus
p160
(dp161
g140
g14
(S'\x07\x00\x00\x00\x00\x00'
tRp162
sg142
S'C'
sg143
g14
(S'\x13\x00\x00\x00\x00\x00'
tRp163
sg145
S'celodnevno'
p164
sbasS'monthly_hours'
p165
I200
sS'weekly_hours'
p166
I40
sS'has_overtime'
p167
I01
sg145
S'Normalna zaposlitev'
p168
sbsg43
S'Kri\xc5\xbeman'
p169
sg45
S'Simon'
p170
sg47
(dp171
sba(idata.doctor
Doctor
p172
(dp173
g4
(dp174
sg6
(idata.employment_type
EmploymentType
p175
(dp176
S'allowed_turnuses'
p177
(lp178
(idata.turnus
Turnus
p179
(dp180
S'start'
p181
g14
(S'\x08\x00\x00\x00\x00\x00'
tRp182
sS'code'
p183
S'D'
sS'end'
p184
g14
(S'\x10\x00\x00\x00\x00\x00'
tRp185
sS'label'
p186
S'eno izmensko'
p187
sba(idata.turnus
Turnus
p188
(dp189
g181
g14
(S'\x07\x00\x00\x00\x00\x00'
tRp190
sg183
S'D'
sg184
g14
(S'\x0e\x00\x00\x00\x00\x00'
tRp191
sg186
S've\xc4\x8d izmensko'
p192
sba(idata.turnus
Turnus
p193
(dp194
g181
g14
(S'\x0e\x00\x00\x00\x00\x00'
tRp195
sg183
S'P'
sg184
g14
(S'\x13\x00\x00\x00\x00\x00'
tRp196
sg186
g192
sba(idata.turnus
Turnus
p197
(dp198
g181
g14
(S'\x13\x00\x00\x00\x00\x00'
tRp199
sg183
S'N'
sg184
g14
(S'\x07\x00\x00\x00\x00\x00'
tRp200
sg186
g192
sba(idata.turnus
Turnus
p201
(dp202
g181
g14
(S'\x07\x00\x00\x00\x00\x00'
tRp203
sg183
S'C'
sg184
g14
(S'\x13\x00\x00\x00\x00\x00'
tRp204
sg186
S'celodnevno'
p205
sbasS'monthly_hours'
p206
I200
sS'weekly_hours'
p207
I40
sS'has_overtime'
p208
I01
sg186
S'Normalna zaposlitev'
p209
sbsg43
S'Petrinja'
p210
sg45
S'Davor'
p211
sg47
(dp212
sba(idata.doctor
Doctor
p213
(dp214
g4
(dp215
sg6
(idata.employment_type
EmploymentType
p216
(dp217
S'allowed_turnuses'
p218
(lp219
(idata.turnus
Turnus
p220
(dp221
S'start'
p222
g14
(S'\x08\x00\x00\x00\x00\x00'
tRp223
sS'code'
p224
S'D'
sS'end'
p225
g14
(S'\x10\x00\x00\x00\x00\x00'
tRp226
sS'label'
p227
S'eno izmensko'
p228
sba(idata.turnus
Turnus
p229
(dp230
g222
g14
(S'\x07\x00\x00\x00\x00\x00'
tRp231
sg224
S'D'
sg225
g14
(S'\x0e\x00\x00\x00\x00\x00'
tRp232
sg227
S've\xc4\x8d izmensko'
p233
sba(idata.turnus
Turnus
p234
(dp235
g222
g14
(S'\x0e\x00\x00\x00\x00\x00'
tRp236
sg224
S'P'
sg225
g14
(S'\x13\x00\x00\x00\x00\x00'
tRp237
sg227
g233
sba(idata.turnus
Turnus
p238
(dp239
g222
g14
(S'\x13\x00\x00\x00\x00\x00'
tRp240
sg224
S'N'
sg225
g14
(S'\x07\x00\x00\x00\x00\x00'
tRp241
sg227
g233
sba(idata.turnus
Turnus
p242
(dp243
g222
g14
(S'\x07\x00\x00\x00\x00\x00'
tRp244
sg224
S'C'
sg225
g14
(S'\x13\x00\x00\x00\x00\x00'
tRp245
sg227
S'celodnevno'
p246
sbasS'monthly_hours'
p247
I200
sS'weekly_hours'
p248
I40
sS'has_overtime'
p249
I01
sg227
S'Normalna zaposlitev'
p250
sbsg43
S'Jernej\xc4\x8di\xc4\x8d'
p251
sg45
S'Urban'
p252
sg47
(dp253
sba.