(lp1
(idata.doctor
Doctor
p2
(dp3
S'surname'
p4
S'\xc4\x8cepar'
p5
sS'name'
p6
S'Matja\xc5\xbe'
p7
sS'title'
p8
S'Zdravnik'
p9
sS'employment_type'
p10
(idata.employment_type
EmploymentType
p11
(dp12
S'allowed_turnuses'
p13
c__builtin__
set
p14
((lp15
(idata.turnus
Turnus
p16
(dp17
S'start'
p18
cdatetime
time
p19
(S'\x07\x00\x00\x00\x00\x00'
tRp20
sS'code'
p21
S'C'
sS'end'
p22
g19
(S'\x13\x00\x00\x00\x00\x00'
tRp23
sS'label'
p24
S'celodnevno'
p25
sba(idata.turnus
Turnus
p26
(dp27
g18
g19
(S'\x07\x00\x00\x00\x00\x00'
tRp28
sg21
S'D'
sg22
g19
(S'\x0e\x00\x00\x00\x00\x00'
tRp29
sg24
S've\xc4\x8d izmensko'
p30
sba(idata.turnus
Turnus
p31
(dp32
g18
g19
(S'\x07\x00\x00\x00\x00\x00'
tRp33
sg21
S'D'
sg22
g19
(S'\x0f\x00\x00\x00\x00\x00'
tRp34
sg24
S'eno izmensko'
p35
sba(idata.turnus
Turnus
p36
(dp37
g18
g19
(S'\x15\x00\x00\x00\x00\x00'
tRp38
sg21
S'N'
sg22
g19
(S'\x07\x00\x00\x00\x00\x00'
tRp39
sg24
g30
sba(idata.turnus
Turnus
p40
(dp41
g18
g19
(S'\x0e\x00\x00\x00\x00\x00'
tRp42
sg21
S'P'
sg22
g19
(S'\x15\x00\x00\x00\x00\x00'
tRp43
sg24
g30
sbatRp44
sS'monthly_hours'
p45
I200
sS'weekly_hours'
p46
I40
sS'has_overtime'
p47
I01
sg24
S'Normalna zaposlitev'
p48
sbsS'workplaces'
p49
g14
((lp50
(idata.workplace
Workplace
p51
(dp52
S'allowed_turnuses'
p53
g14
((ltRp54
sS'label'
p55
S'Intenzivna nega'
p56
sba(idata.workplace
Workplace
p57
(dp58
g53
g14
((ltRp59
sg55
S'Navadna nega (odd)'
p60
sba(idata.workplace
Workplace
p61
(dp62
g53
g14
((ltRp63
sg55
S'Ambulanta'
p64
sba(idata.workplace
Workplace
p65
(dp66
g53
g14
((ltRp67
sg55
S'Perfuzija'
p68
sba(idata.workplace
Workplace
p69
(dp70
g53
g14
((ltRp71
sg55
S'Intenzivna terapija B'
p72
sba(idata.workplace
Workplace
p73
(dp74
g53
g14
((ltRp75
sg55
S'Intenzivna terapija A'
p76
sba(idata.workplace
Workplace
p77
(dp78
g53
g14
((ltRp79
sg55
S'Administracija'
p80
sbatRp81
sS'birthday'
p82
S'1'
sS'vacations'
p83
(dp84
sS'forbidden_turnuses'
p85
(dp86
sba(idata.doctor
Doctor
p87
(dp88
g4
S'Rav\xc5\xa1elj'
p89
sg6
S'Matej'
p90
sg8
g9
sg10
(idata.employment_type
EmploymentType
p91
(dp92
S'allowed_turnuses'
p93
g14
((lp94
(idata.turnus
Turnus
p95
(dp96
S'start'
p97
g19
(S'\x07\x00\x00\x00\x00\x00'
tRp98
sS'code'
p99
S'C'
sS'end'
p100
g19
(S'\x13\x00\x00\x00\x00\x00'
tRp101
sS'label'
p102
S'celodnevno'
p103
sba(idata.turnus
Turnus
p104
(dp105
g97
g19
(S'\x07\x00\x00\x00\x00\x00'
tRp106
sg99
S'D'
sg100
g19
(S'\x0e\x00\x00\x00\x00\x00'
tRp107
sg102
S've\xc4\x8d izmensko'
p108
sba(idata.turnus
Turnus
p109
(dp110
g97
g19
(S'\x07\x00\x00\x00\x00\x00'
tRp111
sg99
S'D'
sg100
g19
(S'\x0f\x00\x00\x00\x00\x00'
tRp112
sg102
S'eno izmensko'
p113
sba(idata.turnus
Turnus
p114
(dp115
g97
g19
(S'\x15\x00\x00\x00\x00\x00'
tRp116
sg99
S'N'
sg100
g19
(S'\x07\x00\x00\x00\x00\x00'
tRp117
sg102
g108
sba(idata.turnus
Turnus
p118
(dp119
g97
g19
(S'\x0e\x00\x00\x00\x00\x00'
tRp120
sg99
S'P'
sg100
g19
(S'\x15\x00\x00\x00\x00\x00'
tRp121
sg102
g108
sbatRp122
sS'monthly_hours'
p123
I200
sS'weekly_hours'
p124
I40
sS'has_overtime'
p125
I01
sg102
S'Normalna zaposlitev'
p126
sbsg49
g14
((lp127
g51
ag57
ag61
ag65
ag69
ag73
ag77
atRp128
sg82
S'1'
sg83
(dp129
sg85
(dp130
sba(idata.doctor
Doctor
p131
(dp132
g4
S'\xc4\x8cotar'
p133
sg6
S'Milo\xc5\xa1'
p134
sg8
g9
sg10
(idata.employment_type
EmploymentType
p135
(dp136
S'allowed_turnuses'
p137
g14
((lp138
(idata.turnus
Turnus
p139
(dp140
S'start'
p141
g19
(S'\x07\x00\x00\x00\x00\x00'
tRp142
sS'code'
p143
S'C'
sS'end'
p144
g19
(S'\x13\x00\x00\x00\x00\x00'
tRp145
sS'label'
p146
S'celodnevno'
p147
sba(idata.turnus
Turnus
p148
(dp149
g141
g19
(S'\x07\x00\x00\x00\x00\x00'
tRp150
sg143
S'D'
sg144
g19
(S'\x0e\x00\x00\x00\x00\x00'
tRp151
sg146
S've\xc4\x8d izmensko'
p152
sba(idata.turnus
Turnus
p153
(dp154
g141
g19
(S'\x07\x00\x00\x00\x00\x00'
tRp155
sg143
S'D'
sg144
g19
(S'\x0f\x00\x00\x00\x00\x00'
tRp156
sg146
S'eno izmensko'
p157
sba(idata.turnus
Turnus
p158
(dp159
g141
g19
(S'\x15\x00\x00\x00\x00\x00'
tRp160
sg143
S'N'
sg144
g19
(S'\x07\x00\x00\x00\x00\x00'
tRp161
sg146
g152
sba(idata.turnus
Turnus
p162
(dp163
g141
g19
(S'\x0e\x00\x00\x00\x00\x00'
tRp164
sg143
S'P'
sg144
g19
(S'\x15\x00\x00\x00\x00\x00'
tRp165
sg146
g152
sbatRp166
sS'monthly_hours'
p167
I200
sS'weekly_hours'
p168
I40
sS'has_overtime'
p169
I01
sg146
S'Normalna zaposlitev'
p170
sbsg49
g14
((lp171
g51
ag57
ag61
ag65
ag69
ag73
ag77
atRp172
sg82
S'1'
sg83
(dp173
sg85
(dp174
sba(idata.doctor
Doctor
p175
(dp176
g4
S'Kri\xc5\xbeman'
p177
sg6
S'Simon'
p178
sg8
g9
sg10
(idata.employment_type
EmploymentType
p179
(dp180
S'allowed_turnuses'
p181
g14
((lp182
(idata.turnus
Turnus
p183
(dp184
S'start'
p185
g19
(S'\x07\x00\x00\x00\x00\x00'
tRp186
sS'code'
p187
S'C'
sS'end'
p188
g19
(S'\x13\x00\x00\x00\x00\x00'
tRp189
sS'label'
p190
S'celodnevno'
p191
sba(idata.turnus
Turnus
p192
(dp193
g185
g19
(S'\x07\x00\x00\x00\x00\x00'
tRp194
sg187
S'D'
sg188
g19
(S'\x0e\x00\x00\x00\x00\x00'
tRp195
sg190
S've\xc4\x8d izmensko'
p196
sba(idata.turnus
Turnus
p197
(dp198
g185
g19
(S'\x07\x00\x00\x00\x00\x00'
tRp199
sg187
S'D'
sg188
g19
(S'\x0f\x00\x00\x00\x00\x00'
tRp200
sg190
S'eno izmensko'
p201
sba(idata.turnus
Turnus
p202
(dp203
g185
g19
(S'\x15\x00\x00\x00\x00\x00'
tRp204
sg187
S'N'
sg188
g19
(S'\x07\x00\x00\x00\x00\x00'
tRp205
sg190
g196
sba(idata.turnus
Turnus
p206
(dp207
g185
g19
(S'\x0e\x00\x00\x00\x00\x00'
tRp208
sg187
S'P'
sg188
g19
(S'\x15\x00\x00\x00\x00\x00'
tRp209
sg190
g196
sbatRp210
sS'monthly_hours'
p211
I200
sS'weekly_hours'
p212
I40
sS'has_overtime'
p213
I01
sg190
S'Normalna zaposlitev'
p214
sbsg49
g14
((lp215
g51
ag57
ag61
ag65
ag69
ag73
ag77
atRp216
sg82
S'1'
sg83
(dp217
sg85
(dp218
sba(idata.doctor
Doctor
p219
(dp220
g4
S'Petrinja'
p221
sg6
S'Davor'
p222
sg8
g9
sg10
(idata.employment_type
EmploymentType
p223
(dp224
S'allowed_turnuses'
p225
g14
((lp226
(idata.turnus
Turnus
p227
(dp228
S'start'
p229
g19
(S'\x07\x00\x00\x00\x00\x00'
tRp230
sS'code'
p231
S'C'
sS'end'
p232
g19
(S'\x13\x00\x00\x00\x00\x00'
tRp233
sS'label'
p234
S'celodnevno'
p235
sba(idata.turnus
Turnus
p236
(dp237
g229
g19
(S'\x07\x00\x00\x00\x00\x00'
tRp238
sg231
S'D'
sg232
g19
(S'\x0e\x00\x00\x00\x00\x00'
tRp239
sg234
S've\xc4\x8d izmensko'
p240
sba(idata.turnus
Turnus
p241
(dp242
g229
g19
(S'\x07\x00\x00\x00\x00\x00'
tRp243
sg231
S'D'
sg232
g19
(S'\x0f\x00\x00\x00\x00\x00'
tRp244
sg234
S'eno izmensko'
p245
sba(idata.turnus
Turnus
p246
(dp247
g229
g19
(S'\x15\x00\x00\x00\x00\x00'
tRp248
sg231
S'N'
sg232
g19
(S'\x07\x00\x00\x00\x00\x00'
tRp249
sg234
g240
sba(idata.turnus
Turnus
p250
(dp251
g229
g19
(S'\x0e\x00\x00\x00\x00\x00'
tRp252
sg231
S'P'
sg232
g19
(S'\x15\x00\x00\x00\x00\x00'
tRp253
sg234
g240
sbatRp254
sS'monthly_hours'
p255
I200
sS'weekly_hours'
p256
I40
sS'has_overtime'
p257
I01
sg234
S'Normalna zaposlitev'
p258
sbsg49
g14
((lp259
g51
ag57
ag61
ag65
ag69
ag73
ag77
atRp260
sg82
S'1'
sg83
(dp261
sg85
(dp262
sba(idata.doctor
Doctor
p263
(dp264
g4
S'Jernej\xc4\x8di\xc4\x8d'
p265
sg6
S'Urban'
p266
sg8
g9
sg10
(idata.employment_type
EmploymentType
p267
(dp268
S'allowed_turnuses'
p269
g14
((lp270
(idata.turnus
Turnus
p271
(dp272
S'start'
p273
g19
(S'\x07\x00\x00\x00\x00\x00'
tRp274
sS'code'
p275
S'C'
sS'end'
p276
g19
(S'\x13\x00\x00\x00\x00\x00'
tRp277
sS'label'
p278
S'celodnevno'
p279
sba(idata.turnus
Turnus
p280
(dp281
g273
g19
(S'\x07\x00\x00\x00\x00\x00'
tRp282
sg275
S'D'
sg276
g19
(S'\x0e\x00\x00\x00\x00\x00'
tRp283
sg278
S've\xc4\x8d izmensko'
p284
sba(idata.turnus
Turnus
p285
(dp286
g273
g19
(S'\x07\x00\x00\x00\x00\x00'
tRp287
sg275
S'D'
sg276
g19
(S'\x0f\x00\x00\x00\x00\x00'
tRp288
sg278
S'eno izmensko'
p289
sba(idata.turnus
Turnus
p290
(dp291
g273
g19
(S'\x15\x00\x00\x00\x00\x00'
tRp292
sg275
S'N'
sg276
g19
(S'\x07\x00\x00\x00\x00\x00'
tRp293
sg278
g284
sba(idata.turnus
Turnus
p294
(dp295
g273
g19
(S'\x0e\x00\x00\x00\x00\x00'
tRp296
sg275
S'P'
sg276
g19
(S'\x15\x00\x00\x00\x00\x00'
tRp297
sg278
g284
sbatRp298
sS'monthly_hours'
p299
I200
sS'weekly_hours'
p300
I40
sS'has_overtime'
p301
I01
sg278
S'Normalna zaposlitev'
p302
sbsg49
g14
((lp303
g51
ag57
ag61
ag65
ag69
ag73
ag77
atRp304
sg82
S'1'
sg83
(dp305
sg85
(dp306
sba.