(lp1
(idata.doctor
Doctor
p2
(dp3
S'predefined'
p4
(dp5
sS'surname'
p6
S'\xc4\x8cepar'
p7
sS'name'
p8
S'Matja\xc5\xbe'
p9
sS'title'
p10
S'Zdravnik'
p11
sS'employment_type'
p12
(idata.employment_type
EmploymentType
p13
(dp14
S'allowed_turnuses'
p15
c__builtin__
set
p16
((lp17
(idata.turnus
Turnus
p18
(dp19
S'code'
p20
S'N'
sS'end'
p21
cdatetime
time
p22
(S'\x07\x00\x00\x00\x00\x00'
tRp23
sS'blockade'
p24
cdatetime
timedelta
p25
(I0
I43200
I0
tRp26
sS'label'
p27
S've\xc4\x8d izmensko'
p28
sS'start'
p29
g22
(S'\x15\x00\x00\x00\x00\x00'
tRp30
sS'duration'
p31
g25
(I0
I36000
I0
tRp32
sba(idata.turnus
Turnus
p33
(dp34
g20
S'D'
sg21
g22
(S'\x0e\x00\x00\x00\x00\x00'
tRp35
sg24
g25
(I0
I43200
I0
tRp36
sg27
g28
sg29
g22
(S'\x07\x00\x00\x00\x00\x00'
tRp37
sg31
g25
(I0
I25200
I0
tRp38
sba(idata.turnus
Turnus
p39
(dp40
g20
S'D'
sg21
g22
(S'\x0f\x00\x00\x00\x00\x00'
tRp41
sg24
g25
(I0
I43200
I0
tRp42
sg27
S'eno izmensko'
p43
sg29
g22
(S'\x07\x00\x00\x00\x00\x00'
tRp44
sg31
g25
(I0
I28800
I0
tRp45
sba(idata.turnus
Turnus
p46
(dp47
g20
S'N'
sg21
g22
(S'\x07\x00\x00\x00\x00\x00'
tRp48
sg24
g25
(I0
I43200
I0
tRp49
sg27
S've\xc4\x8d izmensko (nedelja)'
p50
sg29
g22
(S'\x13\x00\x00\x00\x00\x00'
tRp51
sg31
g25
(I0
I43200
I0
tRp52
sba(idata.turnus
Turnus
p53
(dp54
g20
S'P'
sg21
g22
(S'\x15\x00\x00\x00\x00\x00'
tRp55
sg24
g25
(I0
I43200
I0
tRp56
sg27
g28
sg29
g22
(S'\x0e\x00\x00\x00\x00\x00'
tRp57
sg31
g25
(I0
I25200
I0
tRp58
sbatRp59
sS'monthly_hours'
p60
I0
sS'weekly_hours'
p61
I40
sS'has_overtime'
p62
I01
sg27
S'Normalna zaposlitev'
p63
sbsS'workplaces'
p64
g16
((lp65
(idata.workplace
Workplace
p66
(dp67
S'allowed_turnuses'
p68
g16
((ltRp69
sS'label'
p70
S'Intenzivna nega'
p71
sba(idata.workplace
Workplace
p72
(dp73
g68
g16
((ltRp74
sg70
S'Navadna nega (odd)'
p75
sba(idata.workplace
Workplace
p76
(dp77
S'allowed_turnuses'
p78
g16
((lp79
(idata.turnus
Turnus
p80
(dp81
S'code'
p82
S'C'
sS'end'
p83
g22
(S'\x13\x00\x00\x00\x00\x00'
tRp84
sS'blockade'
p85
g25
(I0
I43200
I0
tRp86
sS'label'
p87
S'celodnevno'
p88
sS'start'
p89
g22
(S'\x07\x00\x00\x00\x00\x00'
tRp90
sS'duration'
p91
g25
(I0
I43200
I0
tRp92
sba(idata.turnus
Turnus
p93
(dp94
g82
S'D'
sg83
g22
(S'\x0e\x00\x00\x00\x00\x00'
tRp95
sg85
g25
(I0
I43200
I0
tRp96
sg87
S've\xc4\x8d izmensko'
p97
sg89
g22
(S'\x07\x00\x00\x00\x00\x00'
tRp98
sg91
g25
(I0
I25200
I0
tRp99
sba(idata.turnus
Turnus
p100
(dp101
g82
S'D'
sg83
g22
(S'\x0f\x00\x00\x00\x00\x00'
tRp102
sg85
g25
(I0
I43200
I0
tRp103
sg87
S'eno izmensko'
p104
sg89
g22
(S'\x07\x00\x00\x00\x00\x00'
tRp105
sg91
g25
(I0
I28800
I0
tRp106
sba(idata.turnus
Turnus
p107
(dp108
g82
S'P'
sg83
g22
(S'\x15\x00\x00\x00\x00\x00'
tRp109
sg85
g25
(I0
I43200
I0
tRp110
sg87
g97
sg89
g22
(S'\x0e\x00\x00\x00\x00\x00'
tRp111
sg91
g25
(I0
I25200
I0
tRp112
sbatRp113
sS'label'
p114
S'Ambulanta'
p115
sba(idata.workplace
Workplace
p116
(dp117
g68
g16
((ltRp118
sg70
S'Perfuzija'
p119
sba(idata.workplace
Workplace
p120
(dp121
g68
g16
((ltRp122
sg70
S'Intenzivna terapija B'
p123
sba(idata.workplace
Workplace
p124
(dp125
g68
g16
((ltRp126
sg70
S'Intenzivna terapija A'
p127
sba(idata.workplace
Workplace
p128
(dp129
g68
g16
((ltRp130
sg70
S'Administracija'
p131
sbatRp132
sS'birthday'
p133
S'1'
sS'vacations'
p134
(dp135
sS'allowed_turnuses'
p136
g59
sS'forbidden_turnuses'
p137
(dp138
sba(idata.doctor
Doctor
p139
(dp140
g4
(dp141
sg6
S'Rav\xc5\xa1elj'
p142
sg8
S'Matej'
p143
sg10
g11
sg12
(idata.employment_type
EmploymentType
p144
(dp145
S'allowed_turnuses'
p146
g16
((lp147
(idata.turnus
Turnus
p148
(dp149
S'code'
p150
S'N'
sS'end'
p151
g22
(S'\x07\x00\x00\x00\x00\x00'
tRp152
sS'blockade'
p153
g25
(I0
I43200
I0
tRp154
sS'label'
p155
S've\xc4\x8d izmensko'
p156
sS'start'
p157
g22
(S'\x15\x00\x00\x00\x00\x00'
tRp158
sS'duration'
p159
g25
(I0
I36000
I0
tRp160
sba(idata.turnus
Turnus
p161
(dp162
g150
S'D'
sg151
g22
(S'\x0e\x00\x00\x00\x00\x00'
tRp163
sg153
g25
(I0
I43200
I0
tRp164
sg155
g156
sg157
g22
(S'\x07\x00\x00\x00\x00\x00'
tRp165
sg159
g25
(I0
I25200
I0
tRp166
sba(idata.turnus
Turnus
p167
(dp168
g150
S'D'
sg151
g22
(S'\x0f\x00\x00\x00\x00\x00'
tRp169
sg153
g25
(I0
I43200
I0
tRp170
sg155
S'eno izmensko'
p171
sg157
g22
(S'\x07\x00\x00\x00\x00\x00'
tRp172
sg159
g25
(I0
I28800
I0
tRp173
sba(idata.turnus
Turnus
p174
(dp175
g150
S'N'
sg151
g22
(S'\x07\x00\x00\x00\x00\x00'
tRp176
sg153
g25
(I0
I43200
I0
tRp177
sg155
S've\xc4\x8d izmensko (nedelja)'
p178
sg157
g22
(S'\x13\x00\x00\x00\x00\x00'
tRp179
sg159
g25
(I0
I43200
I0
tRp180
sba(idata.turnus
Turnus
p181
(dp182
g150
S'P'
sg151
g22
(S'\x15\x00\x00\x00\x00\x00'
tRp183
sg153
g25
(I0
I43200
I0
tRp184
sg155
g156
sg157
g22
(S'\x0e\x00\x00\x00\x00\x00'
tRp185
sg159
g25
(I0
I25200
I0
tRp186
sbatRp187
sS'monthly_hours'
p188
I0
sS'weekly_hours'
p189
I40
sS'has_overtime'
p190
I01
sg155
S'Normalna zaposlitev'
p191
sbsg64
g16
((lp192
g66
ag72
ag76
ag116
ag120
ag124
ag128
atRp193
sg133
S'1'
sg134
(dp194
sg136
g187
sg137
(dp195
sba(idata.doctor
Doctor
p196
(dp197
g4
(dp198
sg6
S'\xc4\x8cotar'
p199
sg8
S'Milo\xc5\xa1'
p200
sg10
g11
sg12
(idata.employment_type
EmploymentType
p201
(dp202
S'allowed_turnuses'
p203
g16
((lp204
(idata.turnus
Turnus
p205
(dp206
S'code'
p207
S'N'
sS'end'
p208
g22
(S'\x07\x00\x00\x00\x00\x00'
tRp209
sS'blockade'
p210
g25
(I0
I43200
I0
tRp211
sS'label'
p212
S've\xc4\x8d izmensko'
p213
sS'start'
p214
g22
(S'\x15\x00\x00\x00\x00\x00'
tRp215
sS'duration'
p216
g25
(I0
I36000
I0
tRp217
sba(idata.turnus
Turnus
p218
(dp219
g207
S'D'
sg208
g22
(S'\x0e\x00\x00\x00\x00\x00'
tRp220
sg210
g25
(I0
I43200
I0
tRp221
sg212
g213
sg214
g22
(S'\x07\x00\x00\x00\x00\x00'
tRp222
sg216
g25
(I0
I25200
I0
tRp223
sba(idata.turnus
Turnus
p224
(dp225
g207
S'D'
sg208
g22
(S'\x0f\x00\x00\x00\x00\x00'
tRp226
sg210
g25
(I0
I43200
I0
tRp227
sg212
S'eno izmensko'
p228
sg214
g22
(S'\x07\x00\x00\x00\x00\x00'
tRp229
sg216
g25
(I0
I28800
I0
tRp230
sba(idata.turnus
Turnus
p231
(dp232
g207
S'N'
sg208
g22
(S'\x07\x00\x00\x00\x00\x00'
tRp233
sg210
g25
(I0
I43200
I0
tRp234
sg212
S've\xc4\x8d izmensko (nedelja)'
p235
sg214
g22
(S'\x13\x00\x00\x00\x00\x00'
tRp236
sg216
g25
(I0
I43200
I0
tRp237
sba(idata.turnus
Turnus
p238
(dp239
g207
S'P'
sg208
g22
(S'\x15\x00\x00\x00\x00\x00'
tRp240
sg210
g25
(I0
I43200
I0
tRp241
sg212
g213
sg214
g22
(S'\x0e\x00\x00\x00\x00\x00'
tRp242
sg216
g25
(I0
I25200
I0
tRp243
sbatRp244
sS'monthly_hours'
p245
I0
sS'weekly_hours'
p246
I40
sS'has_overtime'
p247
I01
sg212
S'Normalna zaposlitev'
p248
sbsg64
g16
((lp249
g66
ag72
ag76
ag116
ag120
ag124
ag128
atRp250
sg133
S'1'
sg134
(dp251
sg136
g244
sg137
(dp252
sba(idata.doctor
Doctor
p253
(dp254
g4
(dp255
sg6
S'Kri\xc5\xbeman'
p256
sg8
S'Simon'
p257
sg10
g11
sg12
(idata.employment_type
EmploymentType
p258
(dp259
S'allowed_turnuses'
p260
g16
((lp261
(idata.turnus
Turnus
p262
(dp263
S'code'
p264
S'N'
sS'end'
p265
g22
(S'\x07\x00\x00\x00\x00\x00'
tRp266
sS'blockade'
p267
g25
(I0
I43200
I0
tRp268
sS'label'
p269
S've\xc4\x8d izmensko'
p270
sS'start'
p271
g22
(S'\x15\x00\x00\x00\x00\x00'
tRp272
sS'duration'
p273
g25
(I0
I36000
I0
tRp274
sba(idata.turnus
Turnus
p275
(dp276
g264
S'D'
sg265
g22
(S'\x0e\x00\x00\x00\x00\x00'
tRp277
sg267
g25
(I0
I43200
I0
tRp278
sg269
g270
sg271
g22
(S'\x07\x00\x00\x00\x00\x00'
tRp279
sg273
g25
(I0
I25200
I0
tRp280
sba(idata.turnus
Turnus
p281
(dp282
g264
S'D'
sg265
g22
(S'\x0f\x00\x00\x00\x00\x00'
tRp283
sg267
g25
(I0
I43200
I0
tRp284
sg269
S'eno izmensko'
p285
sg271
g22
(S'\x07\x00\x00\x00\x00\x00'
tRp286
sg273
g25
(I0
I28800
I0
tRp287
sba(idata.turnus
Turnus
p288
(dp289
g264
S'N'
sg265
g22
(S'\x07\x00\x00\x00\x00\x00'
tRp290
sg267
g25
(I0
I43200
I0
tRp291
sg269
S've\xc4\x8d izmensko (nedelja)'
p292
sg271
g22
(S'\x13\x00\x00\x00\x00\x00'
tRp293
sg273
g25
(I0
I43200
I0
tRp294
sba(idata.turnus
Turnus
p295
(dp296
g264
S'P'
sg265
g22
(S'\x15\x00\x00\x00\x00\x00'
tRp297
sg267
g25
(I0
I43200
I0
tRp298
sg269
g270
sg271
g22
(S'\x0e\x00\x00\x00\x00\x00'
tRp299
sg273
g25
(I0
I25200
I0
tRp300
sbatRp301
sS'monthly_hours'
p302
I0
sS'weekly_hours'
p303
I40
sS'has_overtime'
p304
I01
sg269
S'Normalna zaposlitev'
p305
sbsg64
g16
((lp306
g66
ag72
ag76
ag116
ag120
ag124
ag128
atRp307
sg133
S'1'
sg134
(dp308
sg136
g301
sg137
(dp309
sba(idata.doctor
Doctor
p310
(dp311
g4
(dp312
sg6
S'Petrinja'
p313
sg8
S'Davor'
p314
sg10
g11
sg12
(idata.employment_type
EmploymentType
p315
(dp316
S'allowed_turnuses'
p317
g16
((lp318
(idata.turnus
Turnus
p319
(dp320
S'code'
p321
S'N'
sS'end'
p322
g22
(S'\x07\x00\x00\x00\x00\x00'
tRp323
sS'blockade'
p324
g25
(I0
I43200
I0
tRp325
sS'label'
p326
S've\xc4\x8d izmensko'
p327
sS'start'
p328
g22
(S'\x15\x00\x00\x00\x00\x00'
tRp329
sS'duration'
p330
g25
(I0
I36000
I0
tRp331
sba(idata.turnus
Turnus
p332
(dp333
g321
S'D'
sg322
g22
(S'\x0e\x00\x00\x00\x00\x00'
tRp334
sg324
g25
(I0
I43200
I0
tRp335
sg326
g327
sg328
g22
(S'\x07\x00\x00\x00\x00\x00'
tRp336
sg330
g25
(I0
I25200
I0
tRp337
sba(idata.turnus
Turnus
p338
(dp339
g321
S'D'
sg322
g22
(S'\x0f\x00\x00\x00\x00\x00'
tRp340
sg324
g25
(I0
I43200
I0
tRp341
sg326
S'eno izmensko'
p342
sg328
g22
(S'\x07\x00\x00\x00\x00\x00'
tRp343
sg330
g25
(I0
I28800
I0
tRp344
sba(idata.turnus
Turnus
p345
(dp346
g321
S'N'
sg322
g22
(S'\x07\x00\x00\x00\x00\x00'
tRp347
sg324
g25
(I0
I43200
I0
tRp348
sg326
S've\xc4\x8d izmensko (nedelja)'
p349
sg328
g22
(S'\x13\x00\x00\x00\x00\x00'
tRp350
sg330
g25
(I0
I43200
I0
tRp351
sba(idata.turnus
Turnus
p352
(dp353
g321
S'P'
sg322
g22
(S'\x15\x00\x00\x00\x00\x00'
tRp354
sg324
g25
(I0
I43200
I0
tRp355
sg326
g327
sg328
g22
(S'\x0e\x00\x00\x00\x00\x00'
tRp356
sg330
g25
(I0
I25200
I0
tRp357
sbatRp358
sS'monthly_hours'
p359
I0
sS'weekly_hours'
p360
I40
sS'has_overtime'
p361
I01
sg326
S'Normalna zaposlitev'
p362
sbsg64
g16
((lp363
g66
ag72
ag76
ag116
ag120
ag124
ag128
atRp364
sg133
S'1'
sg134
(dp365
sg136
g358
sg137
(dp366
sba(idata.doctor
Doctor
p367
(dp368
g4
(dp369
sg6
S'Jernej\xc4\x8di\xc4\x8d'
p370
sg8
S'Urban'
p371
sg10
g11
sg12
(idata.employment_type
EmploymentType
p372
(dp373
S'allowed_turnuses'
p374
g16
((lp375
(idata.turnus
Turnus
p376
(dp377
S'code'
p378
S'N'
sS'end'
p379
g22
(S'\x07\x00\x00\x00\x00\x00'
tRp380
sS'blockade'
p381
g25
(I0
I43200
I0
tRp382
sS'label'
p383
S've\xc4\x8d izmensko'
p384
sS'start'
p385
g22
(S'\x15\x00\x00\x00\x00\x00'
tRp386
sS'duration'
p387
g25
(I0
I36000
I0
tRp388
sba(idata.turnus
Turnus
p389
(dp390
g378
S'D'
sg379
g22
(S'\x0e\x00\x00\x00\x00\x00'
tRp391
sg381
g25
(I0
I43200
I0
tRp392
sg383
g384
sg385
g22
(S'\x07\x00\x00\x00\x00\x00'
tRp393
sg387
g25
(I0
I25200
I0
tRp394
sba(idata.turnus
Turnus
p395
(dp396
g378
S'D'
sg379
g22
(S'\x0f\x00\x00\x00\x00\x00'
tRp397
sg381
g25
(I0
I43200
I0
tRp398
sg383
S'eno izmensko'
p399
sg385
g22
(S'\x07\x00\x00\x00\x00\x00'
tRp400
sg387
g25
(I0
I28800
I0
tRp401
sba(idata.turnus
Turnus
p402
(dp403
g378
S'N'
sg379
g22
(S'\x07\x00\x00\x00\x00\x00'
tRp404
sg381
g25
(I0
I43200
I0
tRp405
sg383
S've\xc4\x8d izmensko (nedelja)'
p406
sg385
g22
(S'\x13\x00\x00\x00\x00\x00'
tRp407
sg387
g25
(I0
I43200
I0
tRp408
sba(idata.turnus
Turnus
p409
(dp410
g378
S'P'
sg379
g22
(S'\x15\x00\x00\x00\x00\x00'
tRp411
sg381
g25
(I0
I43200
I0
tRp412
sg383
g384
sg385
g22
(S'\x0e\x00\x00\x00\x00\x00'
tRp413
sg387
g25
(I0
I25200
I0
tRp414
sbatRp415
sS'monthly_hours'
p416
I0
sS'weekly_hours'
p417
I40
sS'has_overtime'
p418
I01
sg383
S'Normalna zaposlitev'
p419
sbsg64
g16
((lp420
g66
ag72
ag76
ag116
ag120
ag124
ag128
atRp421
sg133
S'1'
sg134
(dp422
sg136
g415
sg137
(dp423
sba.