(lp1
(idata.nurse
Nurse
p2
(dp3
S'surname'
p4
S'\xc5\xa0raj'
p5
sS'name'
p6
S'Marija'
p7
sS'title'
p8
S'Sestra'
p9
sS'employment_type'
p10
(idata.employment_type
EmploymentType
p11
(dp12
S'allowed_turnuses'
p13
c__builtin__
set
p14
((lp15
(idata.turnus
Turnus
p16
(dp17
S'start'
p18
cdatetime
time
p19
(S'\x07\x00\x00\x00\x00\x00'
tRp20
sS'code'
p21
S'C'
sS'end'
p22
g19
(S'\x13\x00\x00\x00\x00\x00'
tRp23
sS'label'
p24
S'celodnevno'
p25
sba(idata.turnus
Turnus
p26
(dp27
g18
g19
(S'\x07\x00\x00\x00\x00\x00'
tRp28
sg21
S'D'
sg22
g19
(S'\x0e\x00\x00\x00\x00\x00'
tRp29
sg24
S've\xc4\x8d izmensko'
p30
sba(idata.turnus
Turnus
p31
(dp32
g18
g19
(S'\x07\x00\x00\x00\x00\x00'
tRp33
sg21
S'D'
sg22
g19
(S'\x0f\x00\x00\x00\x00\x00'
tRp34
sg24
S'eno izmensko'
p35
sba(idata.turnus
Turnus
p36
(dp37
g18
g19
(S'\x15\x00\x00\x00\x00\x00'
tRp38
sg21
S'N'
sg22
g19
(S'\x07\x00\x00\x00\x00\x00'
tRp39
sg24
g30
sba(idata.turnus
Turnus
p40
(dp41
g18
g19
(S'\x0e\x00\x00\x00\x00\x00'
tRp42
sg21
S'P'
sg22
g19
(S'\x15\x00\x00\x00\x00\x00'
tRp43
sg24
g30
sbatRp44
sS'monthly_hours'
p45
I0
sS'weekly_hours'
p46
I40
sS'has_overtime'
p47
I01
sS'label'
p48
S'Normalna zaposlitev'
p49
sbsS'workplaces'
p50
g14
((lp51
(idata.workplace
Workplace
p52
(dp53
S'allowed_turnuses'
p54
g14
((ltRp55
sS'label'
p56
S'Intenzivna nega'
p57
sba(idata.workplace
Workplace
p58
(dp59
g54
g14
((lp60
(idata.turnus
Turnus
p61
(dp62
S'start'
p63
g19
(S'\x0f\x00\x00\x00\x00\x00'
tRp64
sS'code'
p65
S'I-TX'
p66
sS'end'
p67
g19
(S'\x07\x00\x00\x00\x00\x00'
tRp68
sS'label'
p69
S'pripravljenost za transplantacijo'
p70
sba(idata.turnus
Turnus
p71
(dp72
S'start'
p73
g19
(S'\x07\x00\x00\x00\x00\x00'
tRp74
sS'code'
p75
S'D'
sS'end'
p76
g19
(S'\x0f\x00\x00\x00\x00\x00'
tRp77
sS'label'
p78
S'eno izmensko'
p79
sba(idata.turnus
Turnus
p80
(dp81
g63
g19
(S'\x0f\x00\x00\x00\x00\x00'
tRp82
sg65
S'I'
sg67
g19
(S'\x07\x00\x00\x00\x00\x00'
tRp83
sg69
S'pripravljenost'
p84
sba(idata.turnus
Turnus
p85
(dp86
g63
g19
(S'\x07\x00\x00\x00\x00\x00'
tRp87
sg65
S'E'
sg67
g19
(S'\x07\x00\x00\x00\x00\x00'
tRp88
sg69
S'de\xc5\xbeurna'
p89
sba(idata.turnus
Turnus
p90
(dp91
g63
g19
(S'\x07\x00\x00\x00\x00\x00'
tRp92
sg65
S'D-'
p93
sg67
g19
(S'\x0b\x00\x00\x00\x00\x00'
tRp94
sg69
S'dopoldanska po de\xc5\xbeurni'
p95
sbatRp96
sg56
S'Navadna nega (odd)'
p97
sba(idata.workplace
Workplace
p98
(dp99
g54
g14
((lp100
(idata.turnus
Turnus
p101
(dp102
S'start'
p103
g19
(S'\x07\x00\x00\x00\x00\x00'
tRp104
sS'code'
p105
S'D'
sS'end'
p106
g19
(S'\x0e\x00\x00\x00\x00\x00'
tRp107
sS'label'
p108
S've\xc4\x8d izmensko'
p109
sba(idata.turnus
Turnus
p110
(dp111
g103
g19
(S'\x07\x00\x00\x00\x00\x00'
tRp112
sg105
S'D'
sg106
g19
(S'\x0f\x00\x00\x00\x00\x00'
tRp113
sg108
S'eno izmensko'
p114
sba(idata.turnus
Turnus
p115
(dp116
g103
g19
(S'\x15\x00\x00\x00\x00\x00'
tRp117
sg105
S'N'
sg106
g19
(S'\x07\x00\x00\x00\x00\x00'
tRp118
sg108
g109
sba(idata.turnus
Turnus
p119
(dp120
g103
g19
(S'\x0e\x00\x00\x00\x00\x00'
tRp121
sg105
S'P'
sg106
g19
(S'\x15\x00\x00\x00\x00\x00'
tRp122
sg108
g109
sbatRp123
sg56
S'Ambulanta'
p124
sba(idata.workplace
Workplace
p125
(dp126
g54
g14
((ltRp127
sg56
S'Perfuzija'
p128
sba(idata.workplace
Workplace
p129
(dp130
g54
g14
((ltRp131
sg56
S'Intenzivna terapija B'
p132
sba(idata.workplace
Workplace
p133
(dp134
g54
g14
((ltRp135
sg56
S'Intenzivna terapija A'
p136
sba(idata.workplace
Workplace
p137
(dp138
g54
g14
((ltRp139
sg56
S'Administracija'
p140
sbatRp141
sS'birthday'
p142
S'1'
sS'vacations'
p143
(dp144
sS'allowed_turnuses'
p145
g44
sS'forbidden_turnuses'
p146
(dp147
sba(idata.nurse
Nurse
p148
(dp149
g4
S'Robi\xc4\x8d'
p150
sg6
S'Nadja'
p151
sg8
g9
sg10
(idata.employment_type
EmploymentType
p152
(dp153
S'allowed_turnuses'
p154
g14
((lp155
(idata.turnus
Turnus
p156
(dp157
S'start'
p158
g19
(S'\x07\x00\x00\x00\x00\x00'
tRp159
sS'code'
p160
S'C'
sS'end'
p161
g19
(S'\x13\x00\x00\x00\x00\x00'
tRp162
sS'label'
p163
S'celodnevno'
p164
sba(idata.turnus
Turnus
p165
(dp166
g158
g19
(S'\x07\x00\x00\x00\x00\x00'
tRp167
sg160
S'D'
sg161
g19
(S'\x0e\x00\x00\x00\x00\x00'
tRp168
sg163
S've\xc4\x8d izmensko'
p169
sba(idata.turnus
Turnus
p170
(dp171
g158
g19
(S'\x07\x00\x00\x00\x00\x00'
tRp172
sg160
S'D'
sg161
g19
(S'\x0f\x00\x00\x00\x00\x00'
tRp173
sg163
S'eno izmensko'
p174
sba(idata.turnus
Turnus
p175
(dp176
g158
g19
(S'\x15\x00\x00\x00\x00\x00'
tRp177
sg160
S'N'
sg161
g19
(S'\x07\x00\x00\x00\x00\x00'
tRp178
sg163
g169
sba(idata.turnus
Turnus
p179
(dp180
g158
g19
(S'\x0e\x00\x00\x00\x00\x00'
tRp181
sg160
S'P'
sg161
g19
(S'\x15\x00\x00\x00\x00\x00'
tRp182
sg163
g169
sbatRp183
sS'monthly_hours'
p184
I0
sS'weekly_hours'
p185
I40
sS'has_overtime'
p186
I01
sS'label'
p187
S'Normalna zaposlitev'
p188
sbsg50
g14
((lp189
g52
ag58
ag98
ag125
ag129
ag133
ag137
atRp190
sg142
S'1'
sg143
(dp191
sg145
g183
sg146
(dp192
sba(idata.nurse
Nurse
p193
(dp194
g4
S'Segulin'
p195
sg6
S'Mateja'
p196
sg8
g9
sg10
(idata.employment_type
EmploymentType
p197
(dp198
S'allowed_turnuses'
p199
g14
((lp200
(idata.turnus
Turnus
p201
(dp202
S'start'
p203
g19
(S'\x07\x00\x00\x00\x00\x00'
tRp204
sS'code'
p205
S'C'
sS'end'
p206
g19
(S'\x13\x00\x00\x00\x00\x00'
tRp207
sS'label'
p208
S'celodnevno'
p209
sba(idata.turnus
Turnus
p210
(dp211
g203
g19
(S'\x07\x00\x00\x00\x00\x00'
tRp212
sg205
S'D'
sg206
g19
(S'\x0e\x00\x00\x00\x00\x00'
tRp213
sg208
S've\xc4\x8d izmensko'
p214
sba(idata.turnus
Turnus
p215
(dp216
g203
g19
(S'\x07\x00\x00\x00\x00\x00'
tRp217
sg205
S'D'
sg206
g19
(S'\x0f\x00\x00\x00\x00\x00'
tRp218
sg208
S'eno izmensko'
p219
sba(idata.turnus
Turnus
p220
(dp221
g203
g19
(S'\x15\x00\x00\x00\x00\x00'
tRp222
sg205
S'N'
sg206
g19
(S'\x07\x00\x00\x00\x00\x00'
tRp223
sg208
g214
sba(idata.turnus
Turnus
p224
(dp225
g203
g19
(S'\x0e\x00\x00\x00\x00\x00'
tRp226
sg205
S'P'
sg206
g19
(S'\x15\x00\x00\x00\x00\x00'
tRp227
sg208
g214
sbatRp228
sS'monthly_hours'
p229
I0
sS'weekly_hours'
p230
I40
sS'has_overtime'
p231
I01
sS'label'
p232
S'Normalna zaposlitev'
p233
sbsg50
g14
((lp234
g52
ag58
ag98
ag125
ag129
ag133
ag137
atRp235
sg142
S'1'
sg143
(dp236
sg145
g228
sg146
(dp237
sba(idata.nurse
Nurse
p238
(dp239
g4
S'Valen\xc4\x8di\xc4\x8d'
p240
sg6
S'Nika'
p241
sg8
g9
sg10
(idata.employment_type
EmploymentType
p242
(dp243
S'allowed_turnuses'
p244
g14
((lp245
(idata.turnus
Turnus
p246
(dp247
S'start'
p248
g19
(S'\x07\x00\x00\x00\x00\x00'
tRp249
sS'code'
p250
S'C'
sS'end'
p251
g19
(S'\x13\x00\x00\x00\x00\x00'
tRp252
sS'label'
p253
S'celodnevno'
p254
sba(idata.turnus
Turnus
p255
(dp256
g248
g19
(S'\x07\x00\x00\x00\x00\x00'
tRp257
sg250
S'D'
sg251
g19
(S'\x0e\x00\x00\x00\x00\x00'
tRp258
sg253
S've\xc4\x8d izmensko'
p259
sba(idata.turnus
Turnus
p260
(dp261
g248
g19
(S'\x07\x00\x00\x00\x00\x00'
tRp262
sg250
S'D'
sg251
g19
(S'\x0f\x00\x00\x00\x00\x00'
tRp263
sg253
S'eno izmensko'
p264
sba(idata.turnus
Turnus
p265
(dp266
g248
g19
(S'\x15\x00\x00\x00\x00\x00'
tRp267
sg250
S'N'
sg251
g19
(S'\x07\x00\x00\x00\x00\x00'
tRp268
sg253
g259
sba(idata.turnus
Turnus
p269
(dp270
g248
g19
(S'\x0e\x00\x00\x00\x00\x00'
tRp271
sg250
S'P'
sg251
g19
(S'\x15\x00\x00\x00\x00\x00'
tRp272
sg253
g259
sbatRp273
sS'monthly_hours'
p274
I0
sS'weekly_hours'
p275
I40
sS'has_overtime'
p276
I01
sS'label'
p277
S'Normalna zaposlitev'
p278
sbsg50
g14
((lp279
g52
ag58
ag98
ag125
ag129
ag133
ag137
atRp280
sg142
S'1'
sg143
(dp281
sg145
g273
sg146
(dp282
sba(idata.nurse
Nurse
p283
(dp284
g4
S'Ko\xc5\xa1mrlj'
p285
sg6
S'Kristina'
p286
sg8
g9
sg10
(idata.employment_type
EmploymentType
p287
(dp288
S'allowed_turnuses'
p289
g14
((lp290
(idata.turnus
Turnus
p291
(dp292
S'start'
p293
g19
(S'\x07\x00\x00\x00\x00\x00'
tRp294
sS'code'
p295
S'C'
sS'end'
p296
g19
(S'\x13\x00\x00\x00\x00\x00'
tRp297
sS'label'
p298
S'celodnevno'
p299
sba(idata.turnus
Turnus
p300
(dp301
g293
g19
(S'\x07\x00\x00\x00\x00\x00'
tRp302
sg295
S'D'
sg296
g19
(S'\x0e\x00\x00\x00\x00\x00'
tRp303
sg298
S've\xc4\x8d izmensko'
p304
sba(idata.turnus
Turnus
p305
(dp306
g293
g19
(S'\x07\x00\x00\x00\x00\x00'
tRp307
sg295
S'D'
sg296
g19
(S'\x0f\x00\x00\x00\x00\x00'
tRp308
sg298
S'eno izmensko'
p309
sba(idata.turnus
Turnus
p310
(dp311
g293
g19
(S'\x15\x00\x00\x00\x00\x00'
tRp312
sg295
S'N'
sg296
g19
(S'\x07\x00\x00\x00\x00\x00'
tRp313
sg298
g304
sba(idata.turnus
Turnus
p314
(dp315
g293
g19
(S'\x0e\x00\x00\x00\x00\x00'
tRp316
sg295
S'P'
sg296
g19
(S'\x15\x00\x00\x00\x00\x00'
tRp317
sg298
g304
sbatRp318
sS'monthly_hours'
p319
I0
sS'weekly_hours'
p320
I40
sS'has_overtime'
p321
I01
sS'label'
p322
S'Normalna zaposlitev'
p323
sbsg50
g14
((lp324
g52
ag58
ag98
ag125
ag129
ag133
ag137
atRp325
sg142
S'1'
sg143
(dp326
sg145
g318
sg146
(dp327
sba(idata.nurse
Nurse
p328
(dp329
g4
S'Skrt'
p330
sg6
S'Ne\xc5\xbea'
p331
sg8
g9
sg10
(idata.employment_type
EmploymentType
p332
(dp333
S'allowed_turnuses'
p334
g14
((lp335
(idata.turnus
Turnus
p336
(dp337
S'start'
p338
g19
(S'\x07\x00\x00\x00\x00\x00'
tRp339
sS'code'
p340
S'C'
sS'end'
p341
g19
(S'\x13\x00\x00\x00\x00\x00'
tRp342
sS'label'
p343
S'celodnevno'
p344
sba(idata.turnus
Turnus
p345
(dp346
g338
g19
(S'\x07\x00\x00\x00\x00\x00'
tRp347
sg340
S'D'
sg341
g19
(S'\x0e\x00\x00\x00\x00\x00'
tRp348
sg343
S've\xc4\x8d izmensko'
p349
sba(idata.turnus
Turnus
p350
(dp351
g338
g19
(S'\x07\x00\x00\x00\x00\x00'
tRp352
sg340
S'D'
sg341
g19
(S'\x0f\x00\x00\x00\x00\x00'
tRp353
sg343
S'eno izmensko'
p354
sba(idata.turnus
Turnus
p355
(dp356
g338
g19
(S'\x15\x00\x00\x00\x00\x00'
tRp357
sg340
S'N'
sg341
g19
(S'\x07\x00\x00\x00\x00\x00'
tRp358
sg343
g349
sba(idata.turnus
Turnus
p359
(dp360
g338
g19
(S'\x0e\x00\x00\x00\x00\x00'
tRp361
sg340
S'P'
sg341
g19
(S'\x15\x00\x00\x00\x00\x00'
tRp362
sg343
g349
sbatRp363
sS'monthly_hours'
p364
I0
sS'weekly_hours'
p365
I40
sS'has_overtime'
p366
I01
sS'label'
p367
S'Normalna zaposlitev'
p368
sbsg50
g14
((lp369
g52
ag58
ag98
ag125
ag129
ag133
ag137
atRp370
sg142
S'1'
sg143
(dp371
sg145
g363
sg146
(dp372
sba.