(lp1
(idata.nurse
Nurse
p2
(dp3
S'surname'
p4
S'\xc5\xa0raj'
p5
sS'name'
p6
S'Marija'
p7
sS'title'
p8
S'Sestra'
p9
sS'employment_type'
p10
(idata.employment_type
EmploymentType
p11
(dp12
S'allowed_turnuses'
p13
c__builtin__
set
p14
((lp15
(idata.turnus
Turnus
p16
(dp17
S'start'
p18
cdatetime
time
p19
(S'\x07\x00\x00\x00\x00\x00'
tRp20
sS'code'
p21
S'C'
sS'end'
p22
g19
(S'\x13\x00\x00\x00\x00\x00'
tRp23
sS'label'
p24
S'celodnevno'
p25
sba(idata.turnus
Turnus
p26
(dp27
g18
g19
(S'\x07\x00\x00\x00\x00\x00'
tRp28
sg21
S'D'
sg22
g19
(S'\x0e\x00\x00\x00\x00\x00'
tRp29
sg24
S've\xc4\x8d izmensko'
p30
sba(idata.turnus
Turnus
p31
(dp32
g18
g19
(S'\x07\x00\x00\x00\x00\x00'
tRp33
sg21
S'D'
sg22
g19
(S'\x0f\x00\x00\x00\x00\x00'
tRp34
sg24
S'eno izmensko'
p35
sba(idata.turnus
Turnus
p36
(dp37
g18
g19
(S'\x15\x00\x00\x00\x00\x00'
tRp38
sg21
S'N'
sg22
g19
(S'\x07\x00\x00\x00\x00\x00'
tRp39
sg24
g30
sba(idata.turnus
Turnus
p40
(dp41
g18
g19
(S'\x0e\x00\x00\x00\x00\x00'
tRp42
sg21
S'P'
sg22
g19
(S'\x15\x00\x00\x00\x00\x00'
tRp43
sg24
g30
sbatRp44
sS'monthly_hours'
p45
I200
sS'weekly_hours'
p46
I40
sS'has_overtime'
p47
I01
sg24
S'Normalna zaposlitev'
p48
sbsS'workplaces'
p49
g14
((lp50
(idata.workplace
Workplace
p51
(dp52
S'allowed_turnuses'
p53
g14
((ltRp54
sS'label'
p55
S'Intenzivna nega'
p56
sba(idata.workplace
Workplace
p57
(dp58
g53
g14
((ltRp59
sg55
S'Navadna nega (odd)'
p60
sba(idata.workplace
Workplace
p61
(dp62
g53
g14
((ltRp63
sg55
S'Ambulanta'
p64
sba(idata.workplace
Workplace
p65
(dp66
g53
g14
((ltRp67
sg55
S'Perfuzija'
p68
sba(idata.workplace
Workplace
p69
(dp70
g53
g14
((ltRp71
sg55
S'Intenzivna terapija B'
p72
sba(idata.workplace
Workplace
p73
(dp74
g53
g14
((ltRp75
sg55
S'Intenzivna terapija A'
p76
sba(idata.workplace
Workplace
p77
(dp78
g53
g14
((ltRp79
sg55
S'Administracija'
p80
sbatRp81
sS'birthday'
p82
S'1'
sS'vacations'
p83
(dp84
sS'allowed_turnuses'
p85
g44
sS'forbidden_turnuses'
p86
(dp87
sba(idata.nurse
Nurse
p88
(dp89
g4
S'Robi\xc4\x8d'
p90
sg6
S'Nadja'
p91
sg8
g9
sg10
(idata.employment_type
EmploymentType
p92
(dp93
S'allowed_turnuses'
p94
g14
((lp95
(idata.turnus
Turnus
p96
(dp97
S'start'
p98
g19
(S'\x07\x00\x00\x00\x00\x00'
tRp99
sS'code'
p100
S'C'
sS'end'
p101
g19
(S'\x13\x00\x00\x00\x00\x00'
tRp102
sS'label'
p103
S'celodnevno'
p104
sba(idata.turnus
Turnus
p105
(dp106
g98
g19
(S'\x07\x00\x00\x00\x00\x00'
tRp107
sg100
S'D'
sg101
g19
(S'\x0e\x00\x00\x00\x00\x00'
tRp108
sg103
S've\xc4\x8d izmensko'
p109
sba(idata.turnus
Turnus
p110
(dp111
g98
g19
(S'\x07\x00\x00\x00\x00\x00'
tRp112
sg100
S'D'
sg101
g19
(S'\x0f\x00\x00\x00\x00\x00'
tRp113
sg103
S'eno izmensko'
p114
sba(idata.turnus
Turnus
p115
(dp116
g98
g19
(S'\x15\x00\x00\x00\x00\x00'
tRp117
sg100
S'N'
sg101
g19
(S'\x07\x00\x00\x00\x00\x00'
tRp118
sg103
g109
sba(idata.turnus
Turnus
p119
(dp120
g98
g19
(S'\x0e\x00\x00\x00\x00\x00'
tRp121
sg100
S'P'
sg101
g19
(S'\x15\x00\x00\x00\x00\x00'
tRp122
sg103
g109
sbatRp123
sS'monthly_hours'
p124
I200
sS'weekly_hours'
p125
I40
sS'has_overtime'
p126
I01
sg103
S'Normalna zaposlitev'
p127
sbsg49
g14
((lp128
g51
ag57
ag61
ag65
ag69
ag73
ag77
atRp129
sg82
S'1'
sg83
(dp130
sg85
g123
sg86
(dp131
sba(idata.nurse
Nurse
p132
(dp133
g4
S'Segulin'
p134
sg6
S'Mateja'
p135
sg8
g9
sg10
(idata.employment_type
EmploymentType
p136
(dp137
S'allowed_turnuses'
p138
g14
((lp139
(idata.turnus
Turnus
p140
(dp141
S'start'
p142
g19
(S'\x07\x00\x00\x00\x00\x00'
tRp143
sS'code'
p144
S'C'
sS'end'
p145
g19
(S'\x13\x00\x00\x00\x00\x00'
tRp146
sS'label'
p147
S'celodnevno'
p148
sba(idata.turnus
Turnus
p149
(dp150
g142
g19
(S'\x07\x00\x00\x00\x00\x00'
tRp151
sg144
S'D'
sg145
g19
(S'\x0e\x00\x00\x00\x00\x00'
tRp152
sg147
S've\xc4\x8d izmensko'
p153
sba(idata.turnus
Turnus
p154
(dp155
g142
g19
(S'\x07\x00\x00\x00\x00\x00'
tRp156
sg144
S'D'
sg145
g19
(S'\x0f\x00\x00\x00\x00\x00'
tRp157
sg147
S'eno izmensko'
p158
sba(idata.turnus
Turnus
p159
(dp160
g142
g19
(S'\x15\x00\x00\x00\x00\x00'
tRp161
sg144
S'N'
sg145
g19
(S'\x07\x00\x00\x00\x00\x00'
tRp162
sg147
g153
sba(idata.turnus
Turnus
p163
(dp164
g142
g19
(S'\x0e\x00\x00\x00\x00\x00'
tRp165
sg144
S'P'
sg145
g19
(S'\x15\x00\x00\x00\x00\x00'
tRp166
sg147
g153
sbatRp167
sS'monthly_hours'
p168
I200
sS'weekly_hours'
p169
I40
sS'has_overtime'
p170
I01
sg147
S'Normalna zaposlitev'
p171
sbsg49
g14
((lp172
g51
ag57
ag61
ag65
ag69
ag73
ag77
atRp173
sg82
S'1'
sg83
(dp174
sg85
g167
sg86
(dp175
sba(idata.nurse
Nurse
p176
(dp177
g4
S'Valen\xc4\x8di\xc4\x8d'
p178
sg6
S'Nika'
p179
sg8
g9
sg10
(idata.employment_type
EmploymentType
p180
(dp181
S'allowed_turnuses'
p182
g14
((lp183
(idata.turnus
Turnus
p184
(dp185
S'start'
p186
g19
(S'\x07\x00\x00\x00\x00\x00'
tRp187
sS'code'
p188
S'C'
sS'end'
p189
g19
(S'\x13\x00\x00\x00\x00\x00'
tRp190
sS'label'
p191
S'celodnevno'
p192
sba(idata.turnus
Turnus
p193
(dp194
g186
g19
(S'\x07\x00\x00\x00\x00\x00'
tRp195
sg188
S'D'
sg189
g19
(S'\x0e\x00\x00\x00\x00\x00'
tRp196
sg191
S've\xc4\x8d izmensko'
p197
sba(idata.turnus
Turnus
p198
(dp199
g186
g19
(S'\x07\x00\x00\x00\x00\x00'
tRp200
sg188
S'D'
sg189
g19
(S'\x0f\x00\x00\x00\x00\x00'
tRp201
sg191
S'eno izmensko'
p202
sba(idata.turnus
Turnus
p203
(dp204
g186
g19
(S'\x15\x00\x00\x00\x00\x00'
tRp205
sg188
S'N'
sg189
g19
(S'\x07\x00\x00\x00\x00\x00'
tRp206
sg191
g197
sba(idata.turnus
Turnus
p207
(dp208
g186
g19
(S'\x0e\x00\x00\x00\x00\x00'
tRp209
sg188
S'P'
sg189
g19
(S'\x15\x00\x00\x00\x00\x00'
tRp210
sg191
g197
sbatRp211
sS'monthly_hours'
p212
I200
sS'weekly_hours'
p213
I40
sS'has_overtime'
p214
I01
sg191
S'Normalna zaposlitev'
p215
sbsg49
g14
((lp216
g51
ag57
ag61
ag65
ag69
ag73
ag77
atRp217
sg82
S'1'
sg83
(dp218
sg85
g211
sg86
(dp219
sba(idata.nurse
Nurse
p220
(dp221
g4
S'Ko\xc5\xa1mrlj'
p222
sg6
S'Kristina'
p223
sg8
g9
sg10
(idata.employment_type
EmploymentType
p224
(dp225
S'allowed_turnuses'
p226
g14
((lp227
(idata.turnus
Turnus
p228
(dp229
S'start'
p230
g19
(S'\x07\x00\x00\x00\x00\x00'
tRp231
sS'code'
p232
S'C'
sS'end'
p233
g19
(S'\x13\x00\x00\x00\x00\x00'
tRp234
sS'label'
p235
S'celodnevno'
p236
sba(idata.turnus
Turnus
p237
(dp238
g230
g19
(S'\x07\x00\x00\x00\x00\x00'
tRp239
sg232
S'D'
sg233
g19
(S'\x0e\x00\x00\x00\x00\x00'
tRp240
sg235
S've\xc4\x8d izmensko'
p241
sba(idata.turnus
Turnus
p242
(dp243
g230
g19
(S'\x07\x00\x00\x00\x00\x00'
tRp244
sg232
S'D'
sg233
g19
(S'\x0f\x00\x00\x00\x00\x00'
tRp245
sg235
S'eno izmensko'
p246
sba(idata.turnus
Turnus
p247
(dp248
g230
g19
(S'\x15\x00\x00\x00\x00\x00'
tRp249
sg232
S'N'
sg233
g19
(S'\x07\x00\x00\x00\x00\x00'
tRp250
sg235
g241
sba(idata.turnus
Turnus
p251
(dp252
g230
g19
(S'\x0e\x00\x00\x00\x00\x00'
tRp253
sg232
S'P'
sg233
g19
(S'\x15\x00\x00\x00\x00\x00'
tRp254
sg235
g241
sbatRp255
sS'monthly_hours'
p256
I200
sS'weekly_hours'
p257
I40
sS'has_overtime'
p258
I01
sg235
S'Normalna zaposlitev'
p259
sbsg49
g14
((lp260
g51
ag57
ag61
ag65
ag69
ag73
ag77
atRp261
sg82
S'1'
sg83
(dp262
sg85
g255
sg86
(dp263
sba(idata.nurse
Nurse
p264
(dp265
g4
S'Skrt'
p266
sg6
S'Ne\xc5\xbea'
p267
sg8
g9
sg10
(idata.employment_type
EmploymentType
p268
(dp269
S'allowed_turnuses'
p270
g14
((lp271
(idata.turnus
Turnus
p272
(dp273
S'start'
p274
g19
(S'\x07\x00\x00\x00\x00\x00'
tRp275
sS'code'
p276
S'C'
sS'end'
p277
g19
(S'\x13\x00\x00\x00\x00\x00'
tRp278
sS'label'
p279
S'celodnevno'
p280
sba(idata.turnus
Turnus
p281
(dp282
g274
g19
(S'\x07\x00\x00\x00\x00\x00'
tRp283
sg276
S'D'
sg277
g19
(S'\x0e\x00\x00\x00\x00\x00'
tRp284
sg279
S've\xc4\x8d izmensko'
p285
sba(idata.turnus
Turnus
p286
(dp287
g274
g19
(S'\x07\x00\x00\x00\x00\x00'
tRp288
sg276
S'D'
sg277
g19
(S'\x0f\x00\x00\x00\x00\x00'
tRp289
sg279
S'eno izmensko'
p290
sba(idata.turnus
Turnus
p291
(dp292
g274
g19
(S'\x15\x00\x00\x00\x00\x00'
tRp293
sg276
S'N'
sg277
g19
(S'\x07\x00\x00\x00\x00\x00'
tRp294
sg279
g285
sba(idata.turnus
Turnus
p295
(dp296
g274
g19
(S'\x0e\x00\x00\x00\x00\x00'
tRp297
sg276
S'P'
sg277
g19
(S'\x15\x00\x00\x00\x00\x00'
tRp298
sg279
g285
sbatRp299
sS'monthly_hours'
p300
I200
sS'weekly_hours'
p301
I40
sS'has_overtime'
p302
I01
sg279
S'Normalna zaposlitev'
p303
sbsg49
g14
((lp304
g51
ag57
ag61
ag65
ag69
ag73
ag77
atRp305
sg82
S'1'
sg83
(dp306
sg85
g299
sg86
(dp307
sba.