(lp1
(idata.nurse
Nurse
p2
(dp3
S'surname'
p4
S'\xc5\xa0raj'
p5
sS'name'
p6
S'Marija'
p7
sS'title'
p8
S'Sestra'
p9
sS'employment_type'
p10
(idata.employment_type
EmploymentType
p11
(dp12
S'allowed_turnuses'
p13
c__builtin__
set
p14
((lp15
(idata.turnus
Turnus
p16
(dp17
S'duration'
p18
cdatetime
timedelta
p19
(I0
I43200
I0
tRp20
sS'start'
p21
cdatetime
time
p22
(S'\x13\x00\x00\x00\x00\x00'
tRp23
sS'code'
p24
S'N'
sS'end'
p25
g22
(S'\x07\x00\x00\x00\x00\x00'
tRp26
sS'label'
p27
S've\xc4\x8d izmensko (nedelja)'
p28
sba(idata.turnus
Turnus
p29
(dp30
g18
g19
(I0
I25200
I0
tRp31
sg21
g22
(S'\x07\x00\x00\x00\x00\x00'
tRp32
sg24
S'D'
sg25
g22
(S'\x0e\x00\x00\x00\x00\x00'
tRp33
sg27
S've\xc4\x8d izmensko'
p34
sba(idata.turnus
Turnus
p35
(dp36
g18
g19
(I0
I28800
I0
tRp37
sg21
g22
(S'\x07\x00\x00\x00\x00\x00'
tRp38
sg24
S'D'
sg25
g22
(S'\x0f\x00\x00\x00\x00\x00'
tRp39
sg27
S'eno izmensko'
p40
sba(idata.turnus
Turnus
p41
(dp42
g18
g19
(I0
I36000
I0
tRp43
sg21
g22
(S'\x15\x00\x00\x00\x00\x00'
tRp44
sg24
S'N'
sg25
g22
(S'\x07\x00\x00\x00\x00\x00'
tRp45
sg27
g34
sba(idata.turnus
Turnus
p46
(dp47
g18
g19
(I0
I25200
I0
tRp48
sg21
g22
(S'\x0e\x00\x00\x00\x00\x00'
tRp49
sg24
S'P'
sg25
g22
(S'\x15\x00\x00\x00\x00\x00'
tRp50
sg27
g34
sbatRp51
sS'monthly_hours'
p52
I0
sS'weekly_hours'
p53
I40
sS'has_overtime'
p54
I01
sg27
S'Normalna zaposlitev'
p55
sbsS'workplaces'
p56
g14
((lp57
(idata.workplace
Workplace
p58
(dp59
S'allowed_turnuses'
p60
g14
((ltRp61
sS'label'
p62
S'Intenzivna nega'
p63
sba(idata.workplace
Workplace
p64
(dp65
g60
g14
((lp66
(idata.turnus
Turnus
p67
(dp68
S'start'
p69
g22
(S'\x0f\x00\x00\x00\x00\x00'
tRp70
sS'code'
p71
S'I-TX'
p72
sS'end'
p73
g22
(S'\x07\x00\x00\x00\x00\x00'
tRp74
sS'label'
p75
S'pripravljenost za transplantacijo'
p76
sba(idata.turnus
Turnus
p77
(dp78
S'start'
p79
g22
(S'\x07\x00\x00\x00\x00\x00'
tRp80
sS'code'
p81
S'D'
sS'end'
p82
g22
(S'\x0f\x00\x00\x00\x00\x00'
tRp83
sS'label'
p84
S'eno izmensko'
p85
sba(idata.turnus
Turnus
p86
(dp87
g69
g22
(S'\x0f\x00\x00\x00\x00\x00'
tRp88
sg71
S'I'
sg73
g22
(S'\x07\x00\x00\x00\x00\x00'
tRp89
sg75
S'pripravljenost'
p90
sba(idata.turnus
Turnus
p91
(dp92
g69
g22
(S'\x07\x00\x00\x00\x00\x00'
tRp93
sg71
S'E'
sg73
g22
(S'\x07\x00\x00\x00\x00\x00'
tRp94
sg75
S'de\xc5\xbeurna'
p95
sba(idata.turnus
Turnus
p96
(dp97
g69
g22
(S'\x07\x00\x00\x00\x00\x00'
tRp98
sg71
S'D-'
p99
sg73
g22
(S'\x0b\x00\x00\x00\x00\x00'
tRp100
sg75
S'dopoldanska po de\xc5\xbeurni'
p101
sbatRp102
sg62
S'Navadna nega (odd)'
p103
sba(idata.workplace
Workplace
p104
(dp105
g60
g14
((lp106
(idata.turnus
Turnus
p107
(dp108
S'start'
p109
g22
(S'\x07\x00\x00\x00\x00\x00'
tRp110
sS'code'
p111
S'D'
sS'end'
p112
g22
(S'\x0e\x00\x00\x00\x00\x00'
tRp113
sS'label'
p114
S've\xc4\x8d izmensko'
p115
sba(idata.turnus
Turnus
p116
(dp117
g109
g22
(S'\x07\x00\x00\x00\x00\x00'
tRp118
sg111
S'D'
sg112
g22
(S'\x0f\x00\x00\x00\x00\x00'
tRp119
sg114
S'eno izmensko'
p120
sba(idata.turnus
Turnus
p121
(dp122
g109
g22
(S'\x15\x00\x00\x00\x00\x00'
tRp123
sg111
S'N'
sg112
g22
(S'\x07\x00\x00\x00\x00\x00'
tRp124
sg114
g115
sba(idata.turnus
Turnus
p125
(dp126
g109
g22
(S'\x0e\x00\x00\x00\x00\x00'
tRp127
sg111
S'P'
sg112
g22
(S'\x15\x00\x00\x00\x00\x00'
tRp128
sg114
g115
sbatRp129
sg62
S'Ambulanta'
p130
sba(idata.workplace
Workplace
p131
(dp132
g60
g14
((ltRp133
sg62
S'Perfuzija'
p134
sba(idata.workplace
Workplace
p135
(dp136
g60
g14
((ltRp137
sg62
S'Intenzivna terapija B'
p138
sba(idata.workplace
Workplace
p139
(dp140
g60
g14
((ltRp141
sg62
S'Intenzivna terapija A'
p142
sba(idata.workplace
Workplace
p143
(dp144
g60
g14
((ltRp145
sg62
S'Administracija'
p146
sbatRp147
sS'birthday'
p148
S'1'
sS'vacations'
p149
(dp150
sS'allowed_turnuses'
p151
g51
sS'forbidden_turnuses'
p152
(dp153
sba(idata.nurse
Nurse
p154
(dp155
g4
S'Robi\xc4\x8d'
p156
sg6
S'Nadja'
p157
sg8
g9
sg10
(idata.employment_type
EmploymentType
p158
(dp159
S'allowed_turnuses'
p160
g14
((lp161
(idata.turnus
Turnus
p162
(dp163
S'duration'
p164
g19
(I0
I43200
I0
tRp165
sS'start'
p166
g22
(S'\x13\x00\x00\x00\x00\x00'
tRp167
sS'code'
p168
S'N'
sS'end'
p169
g22
(S'\x07\x00\x00\x00\x00\x00'
tRp170
sS'label'
p171
S've\xc4\x8d izmensko (nedelja)'
p172
sba(idata.turnus
Turnus
p173
(dp174
g164
g19
(I0
I25200
I0
tRp175
sg166
g22
(S'\x07\x00\x00\x00\x00\x00'
tRp176
sg168
S'D'
sg169
g22
(S'\x0e\x00\x00\x00\x00\x00'
tRp177
sg171
S've\xc4\x8d izmensko'
p178
sba(idata.turnus
Turnus
p179
(dp180
g164
g19
(I0
I28800
I0
tRp181
sg166
g22
(S'\x07\x00\x00\x00\x00\x00'
tRp182
sg168
S'D'
sg169
g22
(S'\x0f\x00\x00\x00\x00\x00'
tRp183
sg171
S'eno izmensko'
p184
sba(idata.turnus
Turnus
p185
(dp186
g164
g19
(I0
I36000
I0
tRp187
sg166
g22
(S'\x15\x00\x00\x00\x00\x00'
tRp188
sg168
S'N'
sg169
g22
(S'\x07\x00\x00\x00\x00\x00'
tRp189
sg171
g178
sba(idata.turnus
Turnus
p190
(dp191
g164
g19
(I0
I25200
I0
tRp192
sg166
g22
(S'\x0e\x00\x00\x00\x00\x00'
tRp193
sg168
S'P'
sg169
g22
(S'\x15\x00\x00\x00\x00\x00'
tRp194
sg171
g178
sbatRp195
sS'monthly_hours'
p196
I0
sS'weekly_hours'
p197
I40
sS'has_overtime'
p198
I01
sg171
S'Normalna zaposlitev'
p199
sbsg56
g14
((lp200
g58
ag64
ag104
ag131
ag135
ag139
ag143
atRp201
sg148
S'1'
sg149
(dp202
sg151
g195
sg152
(dp203
sba(idata.nurse
Nurse
p204
(dp205
g4
S'Segulin'
p206
sg6
S'Mateja'
p207
sg8
g9
sg10
(idata.employment_type
EmploymentType
p208
(dp209
S'allowed_turnuses'
p210
g14
((lp211
(idata.turnus
Turnus
p212
(dp213
S'duration'
p214
g19
(I0
I43200
I0
tRp215
sS'start'
p216
g22
(S'\x13\x00\x00\x00\x00\x00'
tRp217
sS'code'
p218
S'N'
sS'end'
p219
g22
(S'\x07\x00\x00\x00\x00\x00'
tRp220
sS'label'
p221
S've\xc4\x8d izmensko (nedelja)'
p222
sba(idata.turnus
Turnus
p223
(dp224
g214
g19
(I0
I25200
I0
tRp225
sg216
g22
(S'\x07\x00\x00\x00\x00\x00'
tRp226
sg218
S'D'
sg219
g22
(S'\x0e\x00\x00\x00\x00\x00'
tRp227
sg221
S've\xc4\x8d izmensko'
p228
sba(idata.turnus
Turnus
p229
(dp230
g214
g19
(I0
I28800
I0
tRp231
sg216
g22
(S'\x07\x00\x00\x00\x00\x00'
tRp232
sg218
S'D'
sg219
g22
(S'\x0f\x00\x00\x00\x00\x00'
tRp233
sg221
S'eno izmensko'
p234
sba(idata.turnus
Turnus
p235
(dp236
g214
g19
(I0
I36000
I0
tRp237
sg216
g22
(S'\x15\x00\x00\x00\x00\x00'
tRp238
sg218
S'N'
sg219
g22
(S'\x07\x00\x00\x00\x00\x00'
tRp239
sg221
g228
sba(idata.turnus
Turnus
p240
(dp241
g214
g19
(I0
I25200
I0
tRp242
sg216
g22
(S'\x0e\x00\x00\x00\x00\x00'
tRp243
sg218
S'P'
sg219
g22
(S'\x15\x00\x00\x00\x00\x00'
tRp244
sg221
g228
sbatRp245
sS'monthly_hours'
p246
I0
sS'weekly_hours'
p247
I40
sS'has_overtime'
p248
I01
sg221
S'Normalna zaposlitev'
p249
sbsg56
g14
((lp250
g58
ag64
ag104
ag131
ag135
ag139
ag143
atRp251
sg148
S'1'
sg149
(dp252
sg151
g245
sg152
(dp253
sba(idata.nurse
Nurse
p254
(dp255
g4
S'Valen\xc4\x8di\xc4\x8d'
p256
sg6
S'Nika'
p257
sg8
g9
sg10
(idata.employment_type
EmploymentType
p258
(dp259
S'allowed_turnuses'
p260
g14
((lp261
(idata.turnus
Turnus
p262
(dp263
S'duration'
p264
g19
(I0
I43200
I0
tRp265
sS'start'
p266
g22
(S'\x13\x00\x00\x00\x00\x00'
tRp267
sS'code'
p268
S'N'
sS'end'
p269
g22
(S'\x07\x00\x00\x00\x00\x00'
tRp270
sS'label'
p271
S've\xc4\x8d izmensko (nedelja)'
p272
sba(idata.turnus
Turnus
p273
(dp274
g264
g19
(I0
I25200
I0
tRp275
sg266
g22
(S'\x07\x00\x00\x00\x00\x00'
tRp276
sg268
S'D'
sg269
g22
(S'\x0e\x00\x00\x00\x00\x00'
tRp277
sg271
S've\xc4\x8d izmensko'
p278
sba(idata.turnus
Turnus
p279
(dp280
g264
g19
(I0
I28800
I0
tRp281
sg266
g22
(S'\x07\x00\x00\x00\x00\x00'
tRp282
sg268
S'D'
sg269
g22
(S'\x0f\x00\x00\x00\x00\x00'
tRp283
sg271
S'eno izmensko'
p284
sba(idata.turnus
Turnus
p285
(dp286
g264
g19
(I0
I36000
I0
tRp287
sg266
g22
(S'\x15\x00\x00\x00\x00\x00'
tRp288
sg268
S'N'
sg269
g22
(S'\x07\x00\x00\x00\x00\x00'
tRp289
sg271
g278
sba(idata.turnus
Turnus
p290
(dp291
g264
g19
(I0
I25200
I0
tRp292
sg266
g22
(S'\x0e\x00\x00\x00\x00\x00'
tRp293
sg268
S'P'
sg269
g22
(S'\x15\x00\x00\x00\x00\x00'
tRp294
sg271
g278
sbatRp295
sS'monthly_hours'
p296
I0
sS'weekly_hours'
p297
I40
sS'has_overtime'
p298
I01
sg271
S'Normalna zaposlitev'
p299
sbsg56
g14
((lp300
g58
ag64
ag104
ag131
ag135
ag139
ag143
atRp301
sg148
S'1'
sg149
(dp302
sg151
g295
sg152
(dp303
sba(idata.nurse
Nurse
p304
(dp305
g4
S'Ko\xc5\xa1mrlj'
p306
sg6
S'Kristina'
p307
sg8
g9
sg10
(idata.employment_type
EmploymentType
p308
(dp309
S'allowed_turnuses'
p310
g14
((lp311
(idata.turnus
Turnus
p312
(dp313
S'duration'
p314
g19
(I0
I43200
I0
tRp315
sS'start'
p316
g22
(S'\x13\x00\x00\x00\x00\x00'
tRp317
sS'code'
p318
S'N'
sS'end'
p319
g22
(S'\x07\x00\x00\x00\x00\x00'
tRp320
sS'label'
p321
S've\xc4\x8d izmensko (nedelja)'
p322
sba(idata.turnus
Turnus
p323
(dp324
g314
g19
(I0
I25200
I0
tRp325
sg316
g22
(S'\x07\x00\x00\x00\x00\x00'
tRp326
sg318
S'D'
sg319
g22
(S'\x0e\x00\x00\x00\x00\x00'
tRp327
sg321
S've\xc4\x8d izmensko'
p328
sba(idata.turnus
Turnus
p329
(dp330
g314
g19
(I0
I28800
I0
tRp331
sg316
g22
(S'\x07\x00\x00\x00\x00\x00'
tRp332
sg318
S'D'
sg319
g22
(S'\x0f\x00\x00\x00\x00\x00'
tRp333
sg321
S'eno izmensko'
p334
sba(idata.turnus
Turnus
p335
(dp336
g314
g19
(I0
I36000
I0
tRp337
sg316
g22
(S'\x15\x00\x00\x00\x00\x00'
tRp338
sg318
S'N'
sg319
g22
(S'\x07\x00\x00\x00\x00\x00'
tRp339
sg321
g328
sba(idata.turnus
Turnus
p340
(dp341
g314
g19
(I0
I25200
I0
tRp342
sg316
g22
(S'\x0e\x00\x00\x00\x00\x00'
tRp343
sg318
S'P'
sg319
g22
(S'\x15\x00\x00\x00\x00\x00'
tRp344
sg321
g328
sbatRp345
sS'monthly_hours'
p346
I0
sS'weekly_hours'
p347
I40
sS'has_overtime'
p348
I01
sg321
S'Normalna zaposlitev'
p349
sbsg56
g14
((lp350
g58
ag64
ag104
ag131
ag135
ag139
ag143
atRp351
sg148
S'1'
sg149
(dp352
sg151
g345
sg152
(dp353
sba(idata.nurse
Nurse
p354
(dp355
g4
S'Skrt'
p356
sg6
S'Ne\xc5\xbea'
p357
sg8
g9
sg10
(idata.employment_type
EmploymentType
p358
(dp359
S'allowed_turnuses'
p360
g14
((lp361
(idata.turnus
Turnus
p362
(dp363
S'duration'
p364
g19
(I0
I43200
I0
tRp365
sS'start'
p366
g22
(S'\x13\x00\x00\x00\x00\x00'
tRp367
sS'code'
p368
S'N'
sS'end'
p369
g22
(S'\x07\x00\x00\x00\x00\x00'
tRp370
sS'label'
p371
S've\xc4\x8d izmensko (nedelja)'
p372
sba(idata.turnus
Turnus
p373
(dp374
g364
g19
(I0
I25200
I0
tRp375
sg366
g22
(S'\x07\x00\x00\x00\x00\x00'
tRp376
sg368
S'D'
sg369
g22
(S'\x0e\x00\x00\x00\x00\x00'
tRp377
sg371
S've\xc4\x8d izmensko'
p378
sba(idata.turnus
Turnus
p379
(dp380
g364
g19
(I0
I28800
I0
tRp381
sg366
g22
(S'\x07\x00\x00\x00\x00\x00'
tRp382
sg368
S'D'
sg369
g22
(S'\x0f\x00\x00\x00\x00\x00'
tRp383
sg371
S'eno izmensko'
p384
sba(idata.turnus
Turnus
p385
(dp386
g364
g19
(I0
I36000
I0
tRp387
sg366
g22
(S'\x15\x00\x00\x00\x00\x00'
tRp388
sg368
S'N'
sg369
g22
(S'\x07\x00\x00\x00\x00\x00'
tRp389
sg371
g378
sba(idata.turnus
Turnus
p390
(dp391
g364
g19
(I0
I25200
I0
tRp392
sg366
g22
(S'\x0e\x00\x00\x00\x00\x00'
tRp393
sg368
S'P'
sg369
g22
(S'\x15\x00\x00\x00\x00\x00'
tRp394
sg371
g378
sbatRp395
sS'monthly_hours'
p396
I0
sS'weekly_hours'
p397
I40
sS'has_overtime'
p398
I01
sg371
S'Normalna zaposlitev'
p399
sbsg56
g14
((lp400
g58
ag64
ag104
ag131
ag135
ag139
ag143
atRp401
sg148
S'1'
sg149
(dp402
sg151
g395
sg152
(dp403
sba.