(lp1
(idata.nurse
Nurse
p2
(dp3
S'surname'
p4
S'\xc5\xa0raj'
p5
sS'name'
p6
S'Marija'
p7
sS'title'
p8
S'Sestra'
p9
sS'employment_type'
p10
(idata.employment_type
EmploymentType
p11
(dp12
S'allowed_turnuses'
p13
c__builtin__
set
p14
((lp15
(idata.turnus
Turnus
p16
(dp17
S'start'
p18
cdatetime
time
p19
(S'\x07\x00\x00\x00\x00\x00'
tRp20
sS'code'
p21
S'C'
sS'end'
p22
g19
(S'\x13\x00\x00\x00\x00\x00'
tRp23
sS'label'
p24
S'celodnevno'
p25
sba(idata.turnus
Turnus
p26
(dp27
g18
g19
(S'\x07\x00\x00\x00\x00\x00'
tRp28
sg21
S'D'
sg22
g19
(S'\x0e\x00\x00\x00\x00\x00'
tRp29
sg24
S've\xc4\x8d izmensko'
p30
sba(idata.turnus
Turnus
p31
(dp32
g18
g19
(S'\x07\x00\x00\x00\x00\x00'
tRp33
sg21
S'D'
sg22
g19
(S'\x0f\x00\x00\x00\x00\x00'
tRp34
sg24
S'eno izmensko'
p35
sba(idata.turnus
Turnus
p36
(dp37
g18
g19
(S'\x15\x00\x00\x00\x00\x00'
tRp38
sg21
S'N'
sg22
g19
(S'\x07\x00\x00\x00\x00\x00'
tRp39
sg24
g30
sba(idata.turnus
Turnus
p40
(dp41
g18
g19
(S'\x0e\x00\x00\x00\x00\x00'
tRp42
sg21
S'P'
sg22
g19
(S'\x15\x00\x00\x00\x00\x00'
tRp43
sg24
g30
sbatRp44
sS'monthly_hours'
p45
I0
sS'weekly_hours'
p46
I40
sS'has_overtime'
p47
I01
sS'label'
p48
S'Normalna zaposlitev'
p49
sbsS'workplaces'
p50
g14
((lp51
(idata.workplace
Workplace
p52
(dp53
S'allowed_turnuses'
p54
g14
((ltRp55
sS'label'
p56
S'Intenzivna nega'
p57
sba(idata.workplace
Workplace
p58
(dp59
g54
g14
((lp60
(idata.turnus
Turnus
p61
(dp62
S'start'
p63
g19
(S'\x0f\x00\x00\x00\x00\x00'
tRp64
sS'code'
p65
S'I-TX'
p66
sS'end'
p67
g19
(S'\x07\x00\x00\x00\x00\x00'
tRp68
sS'label'
p69
S'pripravljenost za transplantacijo'
p70
sba(idata.turnus
Turnus
p71
(dp72
S'start'
p73
g19
(S'\x07\x00\x00\x00\x00\x00'
tRp74
sS'code'
p75
S'D'
sS'end'
p76
g19
(S'\x0f\x00\x00\x00\x00\x00'
tRp77
sS'label'
p78
S'eno izmensko'
p79
sba(idata.turnus
Turnus
p80
(dp81
g63
g19
(S'\x0f\x00\x00\x00\x00\x00'
tRp82
sg65
S'I'
sg67
g19
(S'\x07\x00\x00\x00\x00\x00'
tRp83
sg69
S'pripravljenost'
p84
sba(idata.turnus
Turnus
p85
(dp86
g63
g19
(S'\x07\x00\x00\x00\x00\x00'
tRp87
sg65
S'E'
sg67
g19
(S'\x07\x00\x00\x00\x00\x00'
tRp88
sg69
S'de\xc5\xbeurna'
p89
sba(idata.turnus
Turnus
p90
(dp91
g63
g19
(S'\x07\x00\x00\x00\x00\x00'
tRp92
sg65
S'D-'
p93
sg67
g19
(S'\x0b\x00\x00\x00\x00\x00'
tRp94
sg69
S'dopoldanska po de\xc5\xbeurni'
p95
sbatRp96
sg56
S'Navadna nega (odd)'
p97
sba(idata.workplace
Workplace
p98
(dp99
S'allowed_turnuses'
p100
g14
((lp101
(idata.turnus
Turnus
p102
(dp103
S'start'
p104
g19
(S'\x07\x00\x00\x00\x00\x00'
tRp105
sS'code'
p106
S'D'
sS'end'
p107
g19
(S'\x0e\x00\x00\x00\x00\x00'
tRp108
sS'label'
p109
S've\xc4\x8d izmensko'
p110
sba(idata.turnus
Turnus
p111
(dp112
g104
g19
(S'\x07\x00\x00\x00\x00\x00'
tRp113
sg106
S'D'
sg107
g19
(S'\x0f\x00\x00\x00\x00\x00'
tRp114
sg109
S'eno izmensko'
p115
sba(idata.turnus
Turnus
p116
(dp117
g104
g19
(S'\x15\x00\x00\x00\x00\x00'
tRp118
sg106
S'N'
sg107
g19
(S'\x07\x00\x00\x00\x00\x00'
tRp119
sg109
g110
sba(idata.turnus
Turnus
p120
(dp121
g104
g19
(S'\x0e\x00\x00\x00\x00\x00'
tRp122
sg106
S'P'
sg107
g19
(S'\x15\x00\x00\x00\x00\x00'
tRp123
sg109
g110
sbatRp124
sS'label'
p125
S'Ambulanta'
p126
sba(idata.workplace
Workplace
p127
(dp128
g54
g14
((ltRp129
sg56
S'Perfuzija'
p130
sba(idata.workplace
Workplace
p131
(dp132
g54
g14
((ltRp133
sg56
S'Intenzivna terapija B'
p134
sba(idata.workplace
Workplace
p135
(dp136
g54
g14
((ltRp137
sg56
S'Intenzivna terapija A'
p138
sba(idata.workplace
Workplace
p139
(dp140
g54
g14
((ltRp141
sg56
S'Administracija'
p142
sbatRp143
sS'birthday'
p144
S'1'
sS'vacations'
p145
(dp146
sS'allowed_turnuses'
p147
g14
((lp148
(idata.turnus
Turnus
p149
(dp150
S'start'
p151
g19
(S'\x07\x00\x00\x00\x00\x00'
tRp152
sS'code'
p153
S'C'
sS'end'
p154
g19
(S'\x13\x00\x00\x00\x00\x00'
tRp155
sS'label'
p156
S'celodnevno'
p157
sba(idata.turnus
Turnus
p158
(dp159
g151
g19
(S'\x07\x00\x00\x00\x00\x00'
tRp160
sg153
S'D'
sg154
g19
(S'\x0e\x00\x00\x00\x00\x00'
tRp161
sg156
S've\xc4\x8d izmensko'
p162
sba(idata.turnus
Turnus
p163
(dp164
g151
g19
(S'\x07\x00\x00\x00\x00\x00'
tRp165
sg153
S'D'
sg154
g19
(S'\x0f\x00\x00\x00\x00\x00'
tRp166
sg156
S'eno izmensko'
p167
sba(idata.turnus
Turnus
p168
(dp169
g151
g19
(S'\x15\x00\x00\x00\x00\x00'
tRp170
sg153
S'N'
sg154
g19
(S'\x07\x00\x00\x00\x00\x00'
tRp171
sg156
g162
sba(idata.turnus
Turnus
p172
(dp173
g151
g19
(S'\x0e\x00\x00\x00\x00\x00'
tRp174
sg153
S'P'
sg154
g19
(S'\x15\x00\x00\x00\x00\x00'
tRp175
sg156
g162
sbatRp176
sS'forbidden_turnuses'
p177
(dp178
sba(idata.nurse
Nurse
p179
(dp180
g4
S'Robi\xc4\x8d'
p181
sg6
S'Nadja'
p182
sg8
g9
sg10
g11
sg50
g14
((lp183
(idata.workplace
Workplace
p184
(dp185
g100
g14
((lp186
(idata.turnus
Turnus
p187
(dp188
S'start'
p189
g19
(S'\x0f\x00\x00\x00\x00\x00'
tRp190
sS'code'
p191
S'I-TX'
p192
sS'end'
p193
g19
(S'\x07\x00\x00\x00\x00\x00'
tRp194
sS'label'
p195
S'pripravljenost za transplantacijo'
p196
sba(idata.turnus
Turnus
p197
(dp198
S'start'
p199
g19
(S'\x07\x00\x00\x00\x00\x00'
tRp200
sS'code'
p201
S'D'
sS'end'
p202
g19
(S'\x0f\x00\x00\x00\x00\x00'
tRp203
sS'label'
p204
S'eno izmensko'
p205
sba(idata.turnus
Turnus
p206
(dp207
g189
g19
(S'\x0f\x00\x00\x00\x00\x00'
tRp208
sg191
S'I'
sg193
g19
(S'\x07\x00\x00\x00\x00\x00'
tRp209
sg195
S'pripravljenost'
p210
sba(idata.turnus
Turnus
p211
(dp212
g189
g19
(S'\x07\x00\x00\x00\x00\x00'
tRp213
sg191
S'E'
sg193
g19
(S'\x07\x00\x00\x00\x00\x00'
tRp214
sg195
S'de\xc5\xbeurna'
p215
sba(idata.turnus
Turnus
p216
(dp217
g189
g19
(S'\x07\x00\x00\x00\x00\x00'
tRp218
sg191
S'D-'
p219
sg193
g19
(S'\x0b\x00\x00\x00\x00\x00'
tRp220
sg195
S'dopoldanska po de\xc5\xbeurni'
p221
sbatRp222
sg125
S'Navadna nega (odd)'
p223
sba(idata.workplace
Workplace
p224
(dp225
g54
g14
((lp226
(idata.turnus
Turnus
p227
(dp228
S'start'
p229
g19
(S'\x07\x00\x00\x00\x00\x00'
tRp230
sS'code'
p231
S'D'
sS'end'
p232
g19
(S'\x0e\x00\x00\x00\x00\x00'
tRp233
sS'label'
p234
S've\xc4\x8d izmensko'
p235
sba(idata.turnus
Turnus
p236
(dp237
g229
g19
(S'\x07\x00\x00\x00\x00\x00'
tRp238
sg231
S'D'
sg232
g19
(S'\x0f\x00\x00\x00\x00\x00'
tRp239
sg234
S'eno izmensko'
p240
sba(idata.turnus
Turnus
p241
(dp242
g229
g19
(S'\x15\x00\x00\x00\x00\x00'
tRp243
sg231
S'N'
sg232
g19
(S'\x07\x00\x00\x00\x00\x00'
tRp244
sg234
g235
sba(idata.turnus
Turnus
p245
(dp246
g229
g19
(S'\x0e\x00\x00\x00\x00\x00'
tRp247
sg231
S'P'
sg232
g19
(S'\x15\x00\x00\x00\x00\x00'
tRp248
sg234
g235
sbatRp249
sg56
S'Ambulanta'
p250
sbag131
ag135
ag52
atRp251
sg144
S'1'
sg145
(dp252
sg147
g14
((lp253
(idata.turnus
Turnus
p254
(dp255
S'start'
p256
g19
(S'\x07\x00\x00\x00\x00\x00'
tRp257
sS'code'
p258
S'C'
sS'end'
p259
g19
(S'\x13\x00\x00\x00\x00\x00'
tRp260
sS'label'
p261
S'celodnevno'
p262
sba(idata.turnus
Turnus
p263
(dp264
g256
g19
(S'\x07\x00\x00\x00\x00\x00'
tRp265
sg258
S'D'
sg259
g19
(S'\x0e\x00\x00\x00\x00\x00'
tRp266
sg261
S've\xc4\x8d izmensko'
p267
sba(idata.turnus
Turnus
p268
(dp269
g256
g19
(S'\x07\x00\x00\x00\x00\x00'
tRp270
sg258
S'D'
sg259
g19
(S'\x0f\x00\x00\x00\x00\x00'
tRp271
sg261
S'eno izmensko'
p272
sba(idata.turnus
Turnus
p273
(dp274
g256
g19
(S'\x15\x00\x00\x00\x00\x00'
tRp275
sg258
S'N'
sg259
g19
(S'\x07\x00\x00\x00\x00\x00'
tRp276
sg261
g267
sba(idata.turnus
Turnus
p277
(dp278
g256
g19
(S'\x0e\x00\x00\x00\x00\x00'
tRp279
sg258
S'P'
sg259
g19
(S'\x15\x00\x00\x00\x00\x00'
tRp280
sg261
g267
sbatRp281
sg177
(dp282
sba(idata.nurse
Nurse
p283
(dp284
g4
S'Segulin'
p285
sg6
S'Mateja'
p286
sg8
g9
sg10
g11
sg50
g14
((lp287
(idata.workplace
Workplace
p288
(dp289
g100
g14
((ltRp290
sg125
S'Intenzivna nega'
p291
sbag184
ag224
a(idata.workplace
Workplace
p292
(dp293
g100
g14
((ltRp294
sg125
S'Perfuzija'
p295
sba(idata.workplace
Workplace
p296
(dp297
g100
g14
((ltRp298
sg125
S'Intenzivna terapija B'
p299
sba(idata.workplace
Workplace
p300
(dp301
g100
g14
((ltRp302
sg125
S'Intenzivna terapija A'
p303
sba(idata.workplace
Workplace
p304
(dp305
g100
g14
((ltRp306
sg125
S'Administracija'
p307
sbatRp308
sg144
S'1'
sg145
(dp309
sg147
g14
((lp310
(idata.turnus
Turnus
p311
(dp312
S'start'
p313
g19
(S'\x07\x00\x00\x00\x00\x00'
tRp314
sS'code'
p315
S'C'
sS'end'
p316
g19
(S'\x13\x00\x00\x00\x00\x00'
tRp317
sS'label'
p318
S'celodnevno'
p319
sba(idata.turnus
Turnus
p320
(dp321
g313
g19
(S'\x07\x00\x00\x00\x00\x00'
tRp322
sg315
S'D'
sg316
g19
(S'\x0e\x00\x00\x00\x00\x00'
tRp323
sg318
S've\xc4\x8d izmensko'
p324
sba(idata.turnus
Turnus
p325
(dp326
g313
g19
(S'\x07\x00\x00\x00\x00\x00'
tRp327
sg315
S'D'
sg316
g19
(S'\x0f\x00\x00\x00\x00\x00'
tRp328
sg318
S'eno izmensko'
p329
sba(idata.turnus
Turnus
p330
(dp331
g313
g19
(S'\x15\x00\x00\x00\x00\x00'
tRp332
sg315
S'N'
sg316
g19
(S'\x07\x00\x00\x00\x00\x00'
tRp333
sg318
g324
sba(idata.turnus
Turnus
p334
(dp335
g313
g19
(S'\x0e\x00\x00\x00\x00\x00'
tRp336
sg315
S'P'
sg316
g19
(S'\x15\x00\x00\x00\x00\x00'
tRp337
sg318
g324
sbatRp338
sg177
(dp339
sba(idata.nurse
Nurse
p340
(dp341
g4
S'Valen\xc4\x8di\xc4\x8d'
p342
sg6
S'Nika'
p343
sg8
g9
sg10
g11
sg50
g14
((lp344
g288
ag184
ag224
ag292
ag296
ag300
ag304
atRp345
sg144
S'1'
sg145
(dp346
sg147
g14
((lp347
(idata.turnus
Turnus
p348
(dp349
S'start'
p350
g19
(S'\x07\x00\x00\x00\x00\x00'
tRp351
sS'code'
p352
S'C'
sS'end'
p353
g19
(S'\x13\x00\x00\x00\x00\x00'
tRp354
sS'label'
p355
S'celodnevno'
p356
sba(idata.turnus
Turnus
p357
(dp358
g350
g19
(S'\x07\x00\x00\x00\x00\x00'
tRp359
sg352
S'D'
sg353
g19
(S'\x0e\x00\x00\x00\x00\x00'
tRp360
sg355
S've\xc4\x8d izmensko'
p361
sba(idata.turnus
Turnus
p362
(dp363
g350
g19
(S'\x07\x00\x00\x00\x00\x00'
tRp364
sg352
S'D'
sg353
g19
(S'\x0f\x00\x00\x00\x00\x00'
tRp365
sg355
S'eno izmensko'
p366
sba(idata.turnus
Turnus
p367
(dp368
g350
g19
(S'\x15\x00\x00\x00\x00\x00'
tRp369
sg352
S'N'
sg353
g19
(S'\x07\x00\x00\x00\x00\x00'
tRp370
sg355
g361
sba(idata.turnus
Turnus
p371
(dp372
g350
g19
(S'\x0e\x00\x00\x00\x00\x00'
tRp373
sg352
S'P'
sg353
g19
(S'\x15\x00\x00\x00\x00\x00'
tRp374
sg355
g361
sbatRp375
sg177
(dp376
sba(idata.nurse
Nurse
p377
(dp378
g4
S'Ko\xc5\xa1mrlj'
p379
sg6
S'Kristina'
p380
sg8
g9
sg10
g11
sg50
g14
((lp381
g288
ag184
ag224
ag292
ag296
ag300
ag304
atRp382
sg144
S'1'
sg145
(dp383
sg147
g14
((lp384
(idata.turnus
Turnus
p385
(dp386
S'start'
p387
g19
(S'\x07\x00\x00\x00\x00\x00'
tRp388
sS'code'
p389
S'C'
sS'end'
p390
g19
(S'\x13\x00\x00\x00\x00\x00'
tRp391
sS'label'
p392
S'celodnevno'
p393
sba(idata.turnus
Turnus
p394
(dp395
g387
g19
(S'\x07\x00\x00\x00\x00\x00'
tRp396
sg389
S'D'
sg390
g19
(S'\x0e\x00\x00\x00\x00\x00'
tRp397
sg392
S've\xc4\x8d izmensko'
p398
sba(idata.turnus
Turnus
p399
(dp400
g387
g19
(S'\x07\x00\x00\x00\x00\x00'
tRp401
sg389
S'D'
sg390
g19
(S'\x0f\x00\x00\x00\x00\x00'
tRp402
sg392
S'eno izmensko'
p403
sba(idata.turnus
Turnus
p404
(dp405
g387
g19
(S'\x15\x00\x00\x00\x00\x00'
tRp406
sg389
S'N'
sg390
g19
(S'\x07\x00\x00\x00\x00\x00'
tRp407
sg392
g398
sba(idata.turnus
Turnus
p408
(dp409
g387
g19
(S'\x0e\x00\x00\x00\x00\x00'
tRp410
sg389
S'P'
sg390
g19
(S'\x15\x00\x00\x00\x00\x00'
tRp411
sg392
g398
sbatRp412
sg177
(dp413
sba(idata.nurse
Nurse
p414
(dp415
g4
S'Skrt'
p416
sg6
S'Ne\xc5\xbea'
p417
sg8
g9
sg10
g11
sg50
g14
((lp418
g288
ag184
ag224
ag292
ag296
ag300
ag304
atRp419
sg144
S'1'
sg145
(dp420
sg147
g14
((lp421
(idata.turnus
Turnus
p422
(dp423
S'start'
p424
g19
(S'\x07\x00\x00\x00\x00\x00'
tRp425
sS'code'
p426
S'C'
sS'end'
p427
g19
(S'\x13\x00\x00\x00\x00\x00'
tRp428
sS'label'
p429
S'celodnevno'
p430
sba(idata.turnus
Turnus
p431
(dp432
g424
g19
(S'\x07\x00\x00\x00\x00\x00'
tRp433
sg426
S'D'
sg427
g19
(S'\x0e\x00\x00\x00\x00\x00'
tRp434
sg429
S've\xc4\x8d izmensko'
p435
sba(idata.turnus
Turnus
p436
(dp437
g424
g19
(S'\x07\x00\x00\x00\x00\x00'
tRp438
sg426
S'D'
sg427
g19
(S'\x0f\x00\x00\x00\x00\x00'
tRp439
sg429
S'eno izmensko'
p440
sba(idata.turnus
Turnus
p441
(dp442
g424
g19
(S'\x15\x00\x00\x00\x00\x00'
tRp443
sg426
S'N'
sg427
g19
(S'\x07\x00\x00\x00\x00\x00'
tRp444
sg429
g435
sba(idata.turnus
Turnus
p445
(dp446
g424
g19
(S'\x0e\x00\x00\x00\x00\x00'
tRp447
sg426
S'P'
sg427
g19
(S'\x15\x00\x00\x00\x00\x00'
tRp448
sg429
g435
sbatRp449
sg177
(dp450
sba.