(lp1
(idata.nurse
Nurse
p2
(dp3
S'forbidden_turnuses'
p4
(dp5
sS'employment_type'
p6
(idata.employment_type
EmploymentType
p7
(dp8
S'allowed_turnuses'
p9
(lp10
(idata.turnus
Turnus
p11
(dp12
S'start'
p13
cdatetime
time
p14
(S'\x07\x00\x00\x00\x00\x00'
tRp15
sS'code'
p16
S'D'
sS'end'
p17
g14
(S'\x0b\x00\x00\x00\x00\x00'
tRp18
sS'label'
p19
S've\xc4\x8d izmensko'
p20
sba(idata.turnus
Turnus
p21
(dp22
g13
g14
(S'\x0e\x00\x00\x00\x00\x00'
tRp23
sg16
S'P'
sg17
g14
(S'\x12\x00\x00\x00\x00\x00'
tRp24
sg19
g20
sbasS'monthly_hours'
p25
I100
sS'weekly_hours'
p26
I20
sS'has_overtime'
p27
I00
sS'label'
p28
S'Polovicen delovni cas'
p29
sbsS'surname'
p30
S'\xc5\xa0raj'
p31
sS'name'
p32
S'Marija'
p33
sS'vacations'
p34
(dp35
sba(idata.nurse
Nurse
p36
(dp37
g4
(dp38
sg6
(idata.employment_type
EmploymentType
p39
(dp40
g9
(lp41
(idata.turnus
Turnus
p42
(dp43
g13
g14
(S'\x08\x00\x00\x00\x00\x00'
tRp44
sg16
S'D'
sg17
g14
(S'\x10\x00\x00\x00\x00\x00'
tRp45
sg19
S'eno izmensko'
p46
sba(idata.turnus
Turnus
p47
(dp48
g13
g14
(S'\x07\x00\x00\x00\x00\x00'
tRp49
sg16
S'D'
sg17
g14
(S'\x0e\x00\x00\x00\x00\x00'
tRp50
sg19
g20
sba(idata.turnus
Turnus
p51
(dp52
g13
g14
(S'\x0e\x00\x00\x00\x00\x00'
tRp53
sg16
S'P'
sg17
g14
(S'\x13\x00\x00\x00\x00\x00'
tRp54
sg19
g20
sba(idata.turnus
Turnus
p55
(dp56
g13
g14
(S'\x07\x00\x00\x00\x00\x00'
tRp57
sg16
S'C'
sg17
g14
(S'\x13\x00\x00\x00\x00\x00'
tRp58
sg19
S'celodnevno'
p59
sbasg25
I150
sg26
I35
sg27
I01
sg28
S'35 ur/teden'
p60
sbsg30
S'Robi\xc4\x8d'
p61
sg32
S'Nadja'
p62
sg34
(dp63
sba(idata.nurse
Nurse
p64
(dp65
g4
(dp66
sg6
(idata.employment_type
EmploymentType
p67
(dp68
S'allowed_turnuses'
p69
(lp70
(idata.turnus
Turnus
p71
(dp72
S'start'
p73
g14
(S'\x08\x00\x00\x00\x00\x00'
tRp74
sS'code'
p75
S'D'
sS'end'
p76
g14
(S'\x10\x00\x00\x00\x00\x00'
tRp77
sS'label'
p78
S'eno izmensko'
p79
sba(idata.turnus
Turnus
p80
(dp81
g73
g14
(S'\x07\x00\x00\x00\x00\x00'
tRp82
sg75
S'D'
sg76
g14
(S'\x0e\x00\x00\x00\x00\x00'
tRp83
sg78
S've\xc4\x8d izmensko'
p84
sba(idata.turnus
Turnus
p85
(dp86
g73
g14
(S'\x0e\x00\x00\x00\x00\x00'
tRp87
sg75
S'P'
sg76
g14
(S'\x13\x00\x00\x00\x00\x00'
tRp88
sg78
g84
sba(idata.turnus
Turnus
p89
(dp90
g73
g14
(S'\x13\x00\x00\x00\x00\x00'
tRp91
sg75
S'N'
sg76
g14
(S'\x07\x00\x00\x00\x00\x00'
tRp92
sg78
g84
sba(idata.turnus
Turnus
p93
(dp94
g73
g14
(S'\x07\x00\x00\x00\x00\x00'
tRp95
sg75
S'C'
sg76
g14
(S'\x13\x00\x00\x00\x00\x00'
tRp96
sg78
S'celodnevno'
p97
sbasS'monthly_hours'
p98
I200
sS'weekly_hours'
p99
I40
sS'has_overtime'
p100
I01
sg78
S'Normalna zaposlitev'
p101
sbsg30
S'Segulin'
p102
sg32
S'Mateja'
p103
sg34
(dp104
sba(idata.nurse
Nurse
p105
(dp106
g4
(dp107
sg6
(idata.employment_type
EmploymentType
p108
(dp109
S'allowed_turnuses'
p110
(lp111
(idata.turnus
Turnus
p112
(dp113
S'start'
p114
g14
(S'\x08\x00\x00\x00\x00\x00'
tRp115
sS'code'
p116
S'D'
sS'end'
p117
g14
(S'\x10\x00\x00\x00\x00\x00'
tRp118
sS'label'
p119
S'eno izmensko'
p120
sba(idata.turnus
Turnus
p121
(dp122
g114
g14
(S'\x07\x00\x00\x00\x00\x00'
tRp123
sg116
S'D'
sg117
g14
(S'\x0e\x00\x00\x00\x00\x00'
tRp124
sg119
S've\xc4\x8d izmensko'
p125
sba(idata.turnus
Turnus
p126
(dp127
g114
g14
(S'\x0e\x00\x00\x00\x00\x00'
tRp128
sg116
S'P'
sg117
g14
(S'\x13\x00\x00\x00\x00\x00'
tRp129
sg119
g125
sba(idata.turnus
Turnus
p130
(dp131
g114
g14
(S'\x13\x00\x00\x00\x00\x00'
tRp132
sg116
S'N'
sg117
g14
(S'\x07\x00\x00\x00\x00\x00'
tRp133
sg119
g125
sba(idata.turnus
Turnus
p134
(dp135
g114
g14
(S'\x07\x00\x00\x00\x00\x00'
tRp136
sg116
S'C'
sg117
g14
(S'\x13\x00\x00\x00\x00\x00'
tRp137
sg119
S'celodnevno'
p138
sbasS'monthly_hours'
p139
I200
sS'weekly_hours'
p140
I40
sS'has_overtime'
p141
I01
sg119
S'Normalna zaposlitev'
p142
sbsg30
S'Valen\xc4\x8di\xc4\x8d'
p143
sg32
S'Nika'
p144
sg34
(dp145
sba(idata.nurse
Nurse
p146
(dp147
g4
(dp148
sg6
(idata.employment_type
EmploymentType
p149
(dp150
g9
(lp151
g42
ag47
ag51
a(idata.turnus
Turnus
p152
(dp153
g13
g14
(S'\x13\x00\x00\x00\x00\x00'
tRp154
sg16
S'N'
sg17
g14
(S'\x07\x00\x00\x00\x00\x00'
tRp155
sg19
g20
sbag55
asg25
I200
sg26
I40
sg27
I01
sg28
S'Normalna zaposlitev'
p156
sbsg30
S'Ko\xc5\xa1mrlj'
p157
sg32
S'Kristina'
p158
sg34
(dp159
sba(idata.nurse
Nurse
p160
(dp161
g4
(dp162
sg6
(idata.employment_type
EmploymentType
p163
(dp164
S'allowed_turnuses'
p165
(lp166
(idata.turnus
Turnus
p167
(dp168
S'start'
p169
g14
(S'\x08\x00\x00\x00\x00\x00'
tRp170
sS'code'
p171
S'D'
sS'end'
p172
g14
(S'\x10\x00\x00\x00\x00\x00'
tRp173
sS'label'
p174
S'eno izmensko'
p175
sba(idata.turnus
Turnus
p176
(dp177
g169
g14
(S'\x07\x00\x00\x00\x00\x00'
tRp178
sg171
S'D'
sg172
g14
(S'\x0e\x00\x00\x00\x00\x00'
tRp179
sg174
S've\xc4\x8d izmensko'
p180
sba(idata.turnus
Turnus
p181
(dp182
g169
g14
(S'\x0e\x00\x00\x00\x00\x00'
tRp183
sg171
S'P'
sg172
g14
(S'\x13\x00\x00\x00\x00\x00'
tRp184
sg174
g180
sba(idata.turnus
Turnus
p185
(dp186
g169
g14
(S'\x13\x00\x00\x00\x00\x00'
tRp187
sg171
S'N'
sg172
g14
(S'\x07\x00\x00\x00\x00\x00'
tRp188
sg174
g180
sba(idata.turnus
Turnus
p189
(dp190
g169
g14
(S'\x07\x00\x00\x00\x00\x00'
tRp191
sg171
S'C'
sg172
g14
(S'\x13\x00\x00\x00\x00\x00'
tRp192
sg174
S'celodnevno'
p193
sbasS'monthly_hours'
p194
I200
sS'weekly_hours'
p195
I40
sS'has_overtime'
p196
I01
sg174
S'Normalna zaposlitev'
p197
sbsg30
S'Skrt'
p198
sg32
S'Ne\xc5\xbea'
p199
sg34
(dp200
sba.