(lp1
(idata.nurse
Nurse
p2
(dp3
S'predefined'
p4
(dp5
cdatetime
date
p6
(S'\x07\xda\x08\x1c'
tRp7
((idata.turnus
Turnus
p8
(dp9
S'code'
p10
S'D'
sS'end'
p11
cdatetime
time
p12
(S'\x0e\x00\x00\x00\x00\x00'
tRp13
sS'blockade'
p14
cdatetime
timedelta
p15
(I0
I43200
I0
tRp16
sS'label'
p17
S've\xc4\x8d izmensko'
p18
sS'start'
p19
g12
(S'\x07\x00\x00\x00\x00\x00'
tRp20
sS'duration'
p21
g15
(I0
I25200
I0
tRp22
sb(idata.workplace
Workplace
p23
(dp24
S'allowed_turnuses'
p25
c__builtin__
set
p26
((lp27
(idata.turnus
Turnus
p28
(dp29
S'code'
p30
S'C'
sS'end'
p31
g12
(S'\x13\x00\x00\x00\x00\x00'
tRp32
sS'blockade'
p33
g15
(I0
I43200
I0
tRp34
sS'label'
p35
S'celodnevno'
p36
sS'start'
p37
g12
(S'\x07\x00\x00\x00\x00\x00'
tRp38
sS'duration'
p39
g15
(I0
I43200
I0
tRp40
sba(idata.turnus
Turnus
p41
(dp42
g30
S'D'
sg31
g12
(S'\x0e\x00\x00\x00\x00\x00'
tRp43
sg33
g15
(I0
I43200
I0
tRp44
sg35
S've\xc4\x8d izmensko'
p45
sg37
g12
(S'\x07\x00\x00\x00\x00\x00'
tRp46
sg39
g15
(I0
I25200
I0
tRp47
sba(idata.turnus
Turnus
p48
(dp49
g30
S'D'
sg31
g12
(S'\x0f\x00\x00\x00\x00\x00'
tRp50
sg33
g15
(I0
I43200
I0
tRp51
sg35
S'eno izmensko'
p52
sg37
g12
(S'\x07\x00\x00\x00\x00\x00'
tRp53
sg39
g15
(I0
I28800
I0
tRp54
sba(idata.turnus
Turnus
p55
(dp56
g30
S'P'
sg31
g12
(S'\x15\x00\x00\x00\x00\x00'
tRp57
sg33
g15
(I0
I43200
I0
tRp58
sg35
g45
sg37
g12
(S'\x0e\x00\x00\x00\x00\x00'
tRp59
sg39
g15
(I0
I25200
I0
tRp60
sbatRp61
sS'label'
p62
S'Ambulanta'
p63
sbtp64
ssS'surname'
p65
S'\xc5\xa0raj'
p66
sS'name'
p67
S'Marija'
p68
sS'title'
p69
S'Sestra'
p70
sS'employment_type'
p71
(idata.employment_type
EmploymentType
p72
(dp73
S'allowed_turnuses'
p74
g26
((lp75
(idata.turnus
Turnus
p76
(dp77
S'code'
p78
S'N'
sS'end'
p79
g12
(S'\x07\x00\x00\x00\x00\x00'
tRp80
sS'blockade'
p81
g15
(I0
I43200
I0
tRp82
sS'label'
p83
S've\xc4\x8d izmensko (nedelja)'
p84
sS'start'
p85
g12
(S'\x13\x00\x00\x00\x00\x00'
tRp86
sS'duration'
p87
g15
(I0
I43200
I0
tRp88
sba(idata.turnus
Turnus
p89
(dp90
g78
S'D'
sg79
g12
(S'\x0e\x00\x00\x00\x00\x00'
tRp91
sg81
g15
(I0
I43200
I0
tRp92
sg83
S've\xc4\x8d izmensko'
p93
sg85
g12
(S'\x07\x00\x00\x00\x00\x00'
tRp94
sg87
g15
(I0
I25200
I0
tRp95
sba(idata.turnus
Turnus
p96
(dp97
g78
S'D'
sg79
g12
(S'\x0f\x00\x00\x00\x00\x00'
tRp98
sg81
g15
(I0
I43200
I0
tRp99
sg83
S'eno izmensko'
p100
sg85
g12
(S'\x07\x00\x00\x00\x00\x00'
tRp101
sg87
g15
(I0
I28800
I0
tRp102
sba(idata.turnus
Turnus
p103
(dp104
g78
S'N'
sg79
g12
(S'\x07\x00\x00\x00\x00\x00'
tRp105
sg81
g15
(I0
I43200
I0
tRp106
sg83
g93
sg85
g12
(S'\x15\x00\x00\x00\x00\x00'
tRp107
sg87
g15
(I0
I36000
I0
tRp108
sba(idata.turnus
Turnus
p109
(dp110
g78
S'P'
sg79
g12
(S'\x15\x00\x00\x00\x00\x00'
tRp111
sg81
g15
(I0
I43200
I0
tRp112
sg83
g93
sg85
g12
(S'\x0e\x00\x00\x00\x00\x00'
tRp113
sg87
g15
(I0
I25200
I0
tRp114
sbatRp115
sS'monthly_hours'
p116
I100
sS'weekly_hours'
p117
I40
sS'has_overtime'
p118
I01
sg83
S'Normalna zaposlitev'
p119
sbsS'workplaces'
p120
g26
((lp121
(idata.workplace
Workplace
p122
(dp123
S'allowed_turnuses'
p124
g26
((ltRp125
sS'label'
p126
S'Intenzivna nega'
p127
sba(idata.workplace
Workplace
p128
(dp129
g124
g26
((ltRp130
sg126
S'Navadna nega (odd)'
p131
sbag23
a(idata.workplace
Workplace
p132
(dp133
g124
g26
((ltRp134
sg126
S'Perfuzija'
p135
sba(idata.workplace
Workplace
p136
(dp137
g124
g26
((ltRp138
sg126
S'Intenzivna terapija B'
p139
sba(idata.workplace
Workplace
p140
(dp141
g124
g26
((ltRp142
sg126
S'Intenzivna terapija A'
p143
sba(idata.workplace
Workplace
p144
(dp145
g124
g26
((ltRp146
sg126
S'Administracija'
p147
sbatRp148
sS'birthday'
p149
S'1'
sS'vacations'
p150
(dp151
sS'allowed_turnuses'
p152
g26
((lp153
(idata.turnus
Turnus
p154
(dp155
g10
S'N'
sg11
g12
(S'\x07\x00\x00\x00\x00\x00'
tRp156
sg14
g15
(I0
I43200
I0
tRp157
sg17
g18
sg19
g12
(S'\x15\x00\x00\x00\x00\x00'
tRp158
sg21
g15
(I0
I36000
I0
tRp159
sbag8
a(idata.turnus
Turnus
p160
(dp161
g10
S'D'
sg11
g12
(S'\x0f\x00\x00\x00\x00\x00'
tRp162
sg14
g15
(I0
I43200
I0
tRp163
sg17
S'eno izmensko'
p164
sg19
g12
(S'\x07\x00\x00\x00\x00\x00'
tRp165
sg21
g15
(I0
I28800
I0
tRp166
sba(idata.turnus
Turnus
p167
(dp168
g10
S'N'
sg11
g12
(S'\x07\x00\x00\x00\x00\x00'
tRp169
sg14
g15
(I0
I43200
I0
tRp170
sg17
S've\xc4\x8d izmensko (nedelja)'
p171
sg19
g12
(S'\x13\x00\x00\x00\x00\x00'
tRp172
sg21
g15
(I0
I43200
I0
tRp173
sba(idata.turnus
Turnus
p174
(dp175
g10
S'P'
sg11
g12
(S'\x15\x00\x00\x00\x00\x00'
tRp176
sg14
g15
(I0
I43200
I0
tRp177
sg17
g18
sg19
g12
(S'\x0e\x00\x00\x00\x00\x00'
tRp178
sg21
g15
(I0
I25200
I0
tRp179
sbatRp180
sS'forbidden_turnuses'
p181
(dp182
sba(idata.nurse
Nurse
p183
(dp184
g4
(dp185
g6
(S'\x07\xda\x08\x1c'
tRp186
((idata.turnus
Turnus
p187
(dp188
S'code'
p189
S'D'
sS'end'
p190
g12
(S'\x0e\x00\x00\x00\x00\x00'
tRp191
sS'blockade'
p192
g15
(I0
I43200
I0
tRp193
sS'label'
p194
S've\xc4\x8d izmensko'
p195
sS'start'
p196
g12
(S'\x07\x00\x00\x00\x00\x00'
tRp197
sS'duration'
p198
g15
(I0
I25200
I0
tRp199
sbg23
tp200
ssg65
S'Robi\xc4\x8d'
p201
sg67
S'Nadja'
p202
sg69
g70
sg71
g72
sg120
g26
((lp203
g122
ag128
ag23
ag132
ag136
ag140
ag144
atRp204
sg149
S'1'
sg150
(dp205
sg152
g26
((lp206
(idata.turnus
Turnus
p207
(dp208
g189
S'N'
sg190
g12
(S'\x07\x00\x00\x00\x00\x00'
tRp209
sg192
g15
(I0
I43200
I0
tRp210
sg194
g195
sg196
g12
(S'\x15\x00\x00\x00\x00\x00'
tRp211
sg198
g15
(I0
I36000
I0
tRp212
sbag187
a(idata.turnus
Turnus
p213
(dp214
g189
S'D'
sg190
g12
(S'\x0f\x00\x00\x00\x00\x00'
tRp215
sg192
g15
(I0
I43200
I0
tRp216
sg194
S'eno izmensko'
p217
sg196
g12
(S'\x07\x00\x00\x00\x00\x00'
tRp218
sg198
g15
(I0
I28800
I0
tRp219
sba(idata.turnus
Turnus
p220
(dp221
g189
S'N'
sg190
g12
(S'\x07\x00\x00\x00\x00\x00'
tRp222
sg192
g15
(I0
I43200
I0
tRp223
sg194
S've\xc4\x8d izmensko (nedelja)'
p224
sg196
g12
(S'\x13\x00\x00\x00\x00\x00'
tRp225
sg198
g15
(I0
I43200
I0
tRp226
sba(idata.turnus
Turnus
p227
(dp228
g189
S'P'
sg190
g12
(S'\x15\x00\x00\x00\x00\x00'
tRp229
sg192
g15
(I0
I43200
I0
tRp230
sg194
g195
sg196
g12
(S'\x0e\x00\x00\x00\x00\x00'
tRp231
sg198
g15
(I0
I25200
I0
tRp232
sbatRp233
sg181
(dp234
sba(idata.nurse
Nurse
p235
(dp236
g4
(dp237
g6
(S'\x07\xda\x08\x1c'
tRp238
((idata.turnus
Turnus
p239
(dp240
S'code'
p241
S'D'
sS'end'
p242
g12
(S'\x0e\x00\x00\x00\x00\x00'
tRp243
sS'blockade'
p244
g15
(I0
I43200
I0
tRp245
sS'label'
p246
S've\xc4\x8d izmensko'
p247
sS'start'
p248
g12
(S'\x07\x00\x00\x00\x00\x00'
tRp249
sS'duration'
p250
g15
(I0
I25200
I0
tRp251
sbg23
tp252
ssg65
S'Segulin'
p253
sg67
S'Mateja'
p254
sg69
g70
sg71
g72
sg120
g26
((lp255
g122
ag128
ag23
ag132
ag136
ag140
ag144
atRp256
sg149
S'1'
sg150
(dp257
sg152
g26
((lp258
(idata.turnus
Turnus
p259
(dp260
g241
S'N'
sg242
g12
(S'\x07\x00\x00\x00\x00\x00'
tRp261
sg244
g15
(I0
I43200
I0
tRp262
sg246
g247
sg248
g12
(S'\x15\x00\x00\x00\x00\x00'
tRp263
sg250
g15
(I0
I36000
I0
tRp264
sbag239
a(idata.turnus
Turnus
p265
(dp266
g241
S'D'
sg242
g12
(S'\x0f\x00\x00\x00\x00\x00'
tRp267
sg244
g15
(I0
I43200
I0
tRp268
sg246
S'eno izmensko'
p269
sg248
g12
(S'\x07\x00\x00\x00\x00\x00'
tRp270
sg250
g15
(I0
I28800
I0
tRp271
sba(idata.turnus
Turnus
p272
(dp273
g241
S'N'
sg242
g12
(S'\x07\x00\x00\x00\x00\x00'
tRp274
sg244
g15
(I0
I43200
I0
tRp275
sg246
S've\xc4\x8d izmensko (nedelja)'
p276
sg248
g12
(S'\x13\x00\x00\x00\x00\x00'
tRp277
sg250
g15
(I0
I43200
I0
tRp278
sba(idata.turnus
Turnus
p279
(dp280
g241
S'P'
sg242
g12
(S'\x15\x00\x00\x00\x00\x00'
tRp281
sg244
g15
(I0
I43200
I0
tRp282
sg246
g247
sg248
g12
(S'\x0e\x00\x00\x00\x00\x00'
tRp283
sg250
g15
(I0
I25200
I0
tRp284
sbatRp285
sg181
(dp286
sba(idata.nurse
Nurse
p287
(dp288
g4
(dp289
g6
(S'\x07\xda\x08\x1c'
tRp290
((idata.turnus
Turnus
p291
(dp292
S'code'
p293
S'D'
sS'end'
p294
g12
(S'\x0e\x00\x00\x00\x00\x00'
tRp295
sS'blockade'
p296
g15
(I0
I43200
I0
tRp297
sS'label'
p298
S've\xc4\x8d izmensko'
p299
sS'start'
p300
g12
(S'\x07\x00\x00\x00\x00\x00'
tRp301
sS'duration'
p302
g15
(I0
I25200
I0
tRp303
sbg23
tp304
ssg65
S'Valen\xc4\x8di\xc4\x8d'
p305
sg67
S'Nika'
p306
sg69
g70
sg71
g72
sg120
g26
((lp307
g122
ag128
ag23
ag132
ag136
ag140
ag144
atRp308
sg149
S'1'
sg150
(dp309
sg152
g26
((lp310
(idata.turnus
Turnus
p311
(dp312
g293
S'N'
sg294
g12
(S'\x07\x00\x00\x00\x00\x00'
tRp313
sg296
g15
(I0
I43200
I0
tRp314
sg298
g299
sg300
g12
(S'\x15\x00\x00\x00\x00\x00'
tRp315
sg302
g15
(I0
I36000
I0
tRp316
sbag291
a(idata.turnus
Turnus
p317
(dp318
g293
S'D'
sg294
g12
(S'\x0f\x00\x00\x00\x00\x00'
tRp319
sg296
g15
(I0
I43200
I0
tRp320
sg298
S'eno izmensko'
p321
sg300
g12
(S'\x07\x00\x00\x00\x00\x00'
tRp322
sg302
g15
(I0
I28800
I0
tRp323
sba(idata.turnus
Turnus
p324
(dp325
g293
S'N'
sg294
g12
(S'\x07\x00\x00\x00\x00\x00'
tRp326
sg296
g15
(I0
I43200
I0
tRp327
sg298
S've\xc4\x8d izmensko (nedelja)'
p328
sg300
g12
(S'\x13\x00\x00\x00\x00\x00'
tRp329
sg302
g15
(I0
I43200
I0
tRp330
sba(idata.turnus
Turnus
p331
(dp332
g293
S'P'
sg294
g12
(S'\x15\x00\x00\x00\x00\x00'
tRp333
sg296
g15
(I0
I43200
I0
tRp334
sg298
g299
sg300
g12
(S'\x0e\x00\x00\x00\x00\x00'
tRp335
sg302
g15
(I0
I25200
I0
tRp336
sbatRp337
sg181
(dp338
sba(idata.nurse
Nurse
p339
(dp340
g4
(dp341
g6
(S'\x07\xda\x08\x1c'
tRp342
((idata.turnus
Turnus
p343
(dp344
S'code'
p345
S'D'
sS'end'
p346
g12
(S'\x0e\x00\x00\x00\x00\x00'
tRp347
sS'blockade'
p348
g15
(I0
I43200
I0
tRp349
sS'label'
p350
S've\xc4\x8d izmensko'
p351
sS'start'
p352
g12
(S'\x07\x00\x00\x00\x00\x00'
tRp353
sS'duration'
p354
g15
(I0
I25200
I0
tRp355
sbg23
tp356
ssg65
S'Ko\xc5\xa1mrlj'
p357
sg67
S'Kristina'
p358
sg69
g70
sg71
g72
sg120
g26
((lp359
g122
ag128
ag23
ag132
ag136
ag140
ag144
atRp360
sg149
S'1'
sg150
(dp361
sg152
g26
((lp362
(idata.turnus
Turnus
p363
(dp364
g345
S'N'
sg346
g12
(S'\x07\x00\x00\x00\x00\x00'
tRp365
sg348
g15
(I0
I43200
I0
tRp366
sg350
g351
sg352
g12
(S'\x15\x00\x00\x00\x00\x00'
tRp367
sg354
g15
(I0
I36000
I0
tRp368
sbag343
a(idata.turnus
Turnus
p369
(dp370
g345
S'D'
sg346
g12
(S'\x0f\x00\x00\x00\x00\x00'
tRp371
sg348
g15
(I0
I43200
I0
tRp372
sg350
S'eno izmensko'
p373
sg352
g12
(S'\x07\x00\x00\x00\x00\x00'
tRp374
sg354
g15
(I0
I28800
I0
tRp375
sba(idata.turnus
Turnus
p376
(dp377
g345
S'N'
sg346
g12
(S'\x07\x00\x00\x00\x00\x00'
tRp378
sg348
g15
(I0
I43200
I0
tRp379
sg350
S've\xc4\x8d izmensko (nedelja)'
p380
sg352
g12
(S'\x13\x00\x00\x00\x00\x00'
tRp381
sg354
g15
(I0
I43200
I0
tRp382
sba(idata.turnus
Turnus
p383
(dp384
g345
S'P'
sg346
g12
(S'\x15\x00\x00\x00\x00\x00'
tRp385
sg348
g15
(I0
I43200
I0
tRp386
sg350
g351
sg352
g12
(S'\x0e\x00\x00\x00\x00\x00'
tRp387
sg354
g15
(I0
I25200
I0
tRp388
sbatRp389
sg181
(dp390
sba(idata.nurse
Nurse
p391
(dp392
g4
(dp393
g6
(S'\x07\xda\x08\x1c'
tRp394
((idata.turnus
Turnus
p395
(dp396
S'code'
p397
S'D'
sS'end'
p398
g12
(S'\x0e\x00\x00\x00\x00\x00'
tRp399
sS'blockade'
p400
g15
(I0
I43200
I0
tRp401
sS'label'
p402
S've\xc4\x8d izmensko'
p403
sS'start'
p404
g12
(S'\x07\x00\x00\x00\x00\x00'
tRp405
sS'duration'
p406
g15
(I0
I25200
I0
tRp407
sbg23
tp408
ssg65
S'Skrt'
p409
sg67
S'Ne\xc5\xbea'
p410
sg69
g70
sg71
g72
sg120
g26
((lp411
g122
ag128
ag23
ag132
ag136
ag140
ag144
atRp412
sg149
S'1'
sg150
(dp413
sg152
g26
((lp414
(idata.turnus
Turnus
p415
(dp416
g397
S'N'
sg398
g12
(S'\x07\x00\x00\x00\x00\x00'
tRp417
sg400
g15
(I0
I43200
I0
tRp418
sg402
g403
sg404
g12
(S'\x15\x00\x00\x00\x00\x00'
tRp419
sg406
g15
(I0
I36000
I0
tRp420
sbag395
a(idata.turnus
Turnus
p421
(dp422
g397
S'D'
sg398
g12
(S'\x0f\x00\x00\x00\x00\x00'
tRp423
sg400
g15
(I0
I43200
I0
tRp424
sg402
S'eno izmensko'
p425
sg404
g12
(S'\x07\x00\x00\x00\x00\x00'
tRp426
sg406
g15
(I0
I28800
I0
tRp427
sba(idata.turnus
Turnus
p428
(dp429
g397
S'N'
sg398
g12
(S'\x07\x00\x00\x00\x00\x00'
tRp430
sg400
g15
(I0
I43200
I0
tRp431
sg402
S've\xc4\x8d izmensko (nedelja)'
p432
sg404
g12
(S'\x13\x00\x00\x00\x00\x00'
tRp433
sg406
g15
(I0
I43200
I0
tRp434
sba(idata.turnus
Turnus
p435
(dp436
g397
S'P'
sg398
g12
(S'\x15\x00\x00\x00\x00\x00'
tRp437
sg400
g15
(I0
I43200
I0
tRp438
sg402
g403
sg404
g12
(S'\x0e\x00\x00\x00\x00\x00'
tRp439
sg406
g15
(I0
I25200
I0
tRp440
sbatRp441
sg181
(dp442
sba.