(lp1
(idata.turnus
Turnus
p2
(dp3
S'code'
p4
S'D'
sS'end'
p5
cdatetime
time
p6
(S'\x0f\x00\x00\x00\x00\x00'
tRp7
sS'blockade'
p8
cdatetime
timedelta
p9
(I0
I43200
I0
tRp10
sS'label'
p11
S'eno izmensko'
p12
sS'start'
p13
g6
(S'\x07\x00\x00\x00\x00\x00'
tRp14
sS'duration'
p15
g9
(I0
I28800
I0
tRp16
sba(idata.turnus
Turnus
p17
(dp18
g4
S'D'
sg5
g6
(S'\x0e\x00\x00\x00\x00\x00'
tRp19
sg8
g9
(I0
I43200
I0
tRp20
sg11
S've\xc4\x8d izmensko'
p21
sg13
g6
(S'\x07\x00\x00\x00\x00\x00'
tRp22
sg15
g9
(I0
I25200
I0
tRp23
sba(idata.turnus
Turnus
p24
(dp25
g4
S'P'
sg5
g6
(S'\x15\x00\x00\x00\x00\x00'
tRp26
sg8
g9
(I0
I43200
I0
tRp27
sg11
g21
sg13
g6
(S'\x0e\x00\x00\x00\x00\x00'
tRp28
sg15
g9
(I0
I25200
I0
tRp29
sba(idata.turnus
Turnus
p30
(dp31
g4
S'N'
sg5
g6
(S'\x07\x00\x00\x00\x00\x00'
tRp32
sg8
g9
(I0
I43200
I0
tRp33
sg11
g21
sg13
g6
(S'\x15\x00\x00\x00\x00\x00'
tRp34
sg15
g9
(I0
I36000
I0
tRp35
sba(idata.turnus
Turnus
p36
(dp37
g4
S'N'
sg5
g6
(S'\x07\x00\x00\x00\x00\x00'
tRp38
sg8
g9
(I0
I43200
I0
tRp39
sg11
S've\xc4\x8d izmensko (nedelja)'
p40
sg13
g6
(S'\x13\x00\x00\x00\x00\x00'
tRp41
sg15
g9
(I0
I43200
I0
tRp42
sba(idata.turnus
Turnus
p43
(dp44
g4
S'C'
sg5
g6
(S'\x13\x00\x00\x00\x00\x00'
tRp45
sg8
g9
(I0
I43200
I0
tRp46
sg11
S'celodnevno'
p47
sg13
g6
(S'\x07\x00\x00\x00\x00\x00'
tRp48
sg15
g9
(I0
I43200
I0
tRp49
sba(idata.turnus
Turnus
p50
(dp51
g4
S'D-'
p52
sg5
g6
(S'\x0e\x00\x00\x00\x00\x00'
tRp53
sg8
g9
(I0
I43200
I0
tRp54
sg11
g21
sg13
g6
(S'\x07\x00\x00\x00\x00\x00'
tRp55
sg15
g9
(I0
I14400
I0
tRp56
sba(idata.turnus
Turnus
p57
(dp58
g4
S'P-'
p59
sg5
g6
(S'\x15\x00\x00\x00\x00\x00'
tRp60
sg8
g9
(I0
I43200
I0
tRp61
sg11
g21
sg13
g6
(S'\x0e\x00\x00\x00\x00\x00'
tRp62
sg15
g9
(I0
I14400
I0
tRp63
sba(idata.turnus
Turnus
p64
(dp65
g4
S'D8'
p66
sg5
g6
(S'\x0f\x00\x00\x00\x00\x00'
tRp67
sg8
g9
(I0
I43200
I0
tRp68
sg11
S'tro izmensko'
p69
sg13
g6
(S'\x07\x00\x00\x00\x00\x00'
tRp70
sg15
g9
(I0
I28800
I0
tRp71
sba(idata.turnus
Turnus
p72
(dp73
g4
S'P8'
p74
sg5
g6
(S'\x17\x00\x00\x00\x00\x00'
tRp75
sg8
g9
(I0
I43200
I0
tRp76
sg11
g69
sg13
g6
(S'\x0f\x00\x00\x00\x00\x00'
tRp77
sg15
g9
(I0
I28800
I0
tRp78
sba(idata.turnus
Turnus
p79
(dp80
g4
S'N8'
p81
sg5
g6
(S'\x07\x00\x00\x00\x00\x00'
tRp82
sg8
g9
(I0
I43200
I0
tRp83
sg11
g69
sg13
g6
(S'\x17\x00\x00\x00\x00\x00'
tRp84
sg15
g9
(I0
I28800
I0
tRp85
sba(idata.turnus
Turnus
p86
(dp87
g4
S'E'
sg5
g6
(S'\x07\x00\x00\x00\x00\x00'
tRp88
sg8
g9
(I0
I43200
I0
tRp89
sg11
S'de\xc5\xbeurna'
p90
sg13
g6
(S'\x07\x00\x00\x00\x00\x00'
tRp91
sg15
g9
(I1
I0
I0
tRp92
sba(idata.turnus
Turnus
p93
(dp94
g4
S'I'
sg5
g6
(S'\x07\x00\x00\x00\x00\x00'
tRp95
sg8
g9
(I0
I43200
I0
tRp96
sg11
S'pripravljenost'
p97
sg13
g6
(S'\x0f\x00\x00\x00\x00\x00'
tRp98
sg15
g9
(I1
I0
I0
tRp99
sba(idata.turnus
Turnus
p100
(dp101
g4
S'I-TX'
p102
sg5
g6
(S'\x07\x00\x00\x00\x00\x00'
tRp103
sg8
g9
(I0
I43200
I0
tRp104
sg11
S'pripravljenost za transplantacijo'
p105
sg13
g6
(S'\x0f\x00\x00\x00\x00\x00'
tRp106
sg15
g9
(I1
I0
I0
tRp107
sba(idata.turnus
Turnus
p108
(dp109
g4
g52
sg5
g6
(S'\x0b\x00\x00\x00\x00\x00'
tRp110
sg8
g9
(I0
I43200
I0
tRp111
sg11
S'dopoldanska po de\xc5\xbeurni'
p112
sg13
g6
(S'\x07\x00\x00\x00\x00\x00'
tRp113
sg15
g9
(I0
I14400
I0
tRp114
sba.