(lp1
(idata.workplace
Workplace
p2
(dp3
S'allowed_turnuses'
p4
c__builtin__
set
p5
((ltRp6
sS'label'
p7
S'Ambulanta'
p8
sba(idata.workplace
Workplace
p9
(dp10
g4
g5
((ltRp11
sg7
S'Navadna nega (odd)'
p12
sba(idata.workplace
Workplace
p13
(dp14
g4
g5
((ltRp15
sg7
S'Intenzivna terapija A'
p16
sba(idata.workplace
Workplace
p17
(dp18
g4
g5
((ltRp19
sg7
S'Intenzivna terapija B'
p20
sba(idata.workplace
Workplace
p21
(dp22
g4
g5
((ltRp23
sg7
S'Intenzivna nega'
p24
sba(idata.workplace
Workplace
p25
(dp26
g4
g5
((ltRp27
sg7
S'Perfuzija'
p28
sba(idata.workplace
Workplace
p29
(dp30
g4
g5
((ltRp31
sg7
S'Administracija'
p32
sba.