(lp1
(idata.doctor
Doctor
p2
(dp3
S'surname'
p4
S'\xc4\x8cepar'
p5
sS'name'
p6
S'Matja\xc5\xbe'
p7
sba(idata.doctor
Doctor
p8
(dp9
g4
S'Rav\xc5\xa1elj'
p10
sg6
S'Matej'
p11
sba(idata.doctor
Doctor
p12
(dp13
g4
S'\xc4\x8cotar'
p14
sg6
S'Milo\xc5\xa1'
p15
sba(idata.doctor
Doctor
p16
(dp17
g4
S'Kri\xc5\xbeman'
p18
sg6
S'Simon'
p19
sba(idata.doctor
Doctor
p20
(dp21
g4
S'Petrinja'
p22
sg6
S'Davor'
p23
sba(idata.doctor
Doctor
p24
(dp25
g4
S'Jernej\xc4\x8di\xc4\x8d'
p26
sg6
S'Urban'
p27
sba.